
kernel.elf:     file format elf32-littlearm


Disassembly of section .text:

00008000 <_start>:
    8000:	e59ff018 	ldr	pc, [pc, #24]	; 8020 <reset_handler>
    8004:	e59ff018 	ldr	pc, [pc, #24]	; 8024 <undefined_handler>
    8008:	e59ff018 	ldr	pc, [pc, #24]	; 8028 <swi_handler>
    800c:	e59ff018 	ldr	pc, [pc, #24]	; 802c <prefetch_handler>
    8010:	e59ff018 	ldr	pc, [pc, #24]	; 8030 <data_handler>
    8014:	e59ff018 	ldr	pc, [pc, #24]	; 8034 <unused_handler>
    8018:	e59ff018 	ldr	pc, [pc, #24]	; 8038 <irq_handler>
    801c:	e59ff018 	ldr	pc, [pc, #24]	; 803c <fiq_handler>

00008020 <reset_handler>:
    8020:	00008040 	andeq	r8, r0, r0, asr #32

00008024 <undefined_handler>:
    8024:	00008084 	andeq	r8, r0, r4, lsl #1

00008028 <swi_handler>:
    8028:	00008088 	andeq	r8, r0, r8, lsl #1

0000802c <prefetch_handler>:
    802c:	0000808c 	andeq	r8, r0, ip, lsl #1

00008030 <data_handler>:
    8030:	00008090 	muleq	r0, r0, r0

00008034 <unused_handler>:
    8034:	00008094 	muleq	r0, r4, r0

00008038 <irq_handler>:
    8038:	000080cc 	andeq	r8, r0, ip, asr #1

0000803c <fiq_handler>:
    803c:	00008098 	muleq	r0, r8, r0

00008040 <reset>:
    8040:	e3a00902 	mov	r0, #32768	; 0x8000
    8044:	e3a01000 	mov	r1, #0
    8048:	e8b003fc 	ldm	r0!, {r2, r3, r4, r5, r6, r7, r8, r9}
    804c:	e8a103fc 	stmia	r1!, {r2, r3, r4, r5, r6, r7, r8, r9}
    8050:	e8b003fc 	ldm	r0!, {r2, r3, r4, r5, r6, r7, r8, r9}
    8054:	e8a103fc 	stmia	r1!, {r2, r3, r4, r5, r6, r7, r8, r9}
    8058:	e3a000d1 	mov	r0, #209	; 0xd1
    805c:	e121f000 	msr	CPSR_c, r0
    8060:	e3a0d90e 	mov	sp, #229376	; 0x38000
    8064:	e3a000d2 	mov	r0, #210	; 0xd2
    8068:	e121f000 	msr	CPSR_c, r0
    806c:	e3a0d701 	mov	sp, #262144	; 0x40000
    8070:	e3a000d3 	mov	r0, #211	; 0xd3
    8074:	e121f000 	msr	CPSR_c, r0
    8078:	e3a0d912 	mov	sp, #294912	; 0x48000
    807c:	eb000021 	bl	8108 <kmain>

00008080 <hang>:
    8080:	eafffffe 	b	8080 <hang>

00008084 <undefined>:
    8084:	eafffffe 	b	8084 <undefined>

00008088 <swi>:
    8088:	eafffffe 	b	8088 <swi>

0000808c <prefetch>:
    808c:	eafffffe 	b	808c <prefetch>

00008090 <data>:
    8090:	eafffffe 	b	8090 <data>

00008094 <unused>:
    8094:	eafffffe 	b	8094 <unused>

00008098 <fiq>:
    8098:	eafffffe 	b	8098 <fiq>

0000809c <PUT32>:
    809c:	e5801000 	str	r1, [r0]
    80a0:	e12fff1e 	bx	lr

000080a4 <PUT16>:
    80a4:	e1c010b0 	strh	r1, [r0]
    80a8:	e12fff1e 	bx	lr

000080ac <PUT8>:
    80ac:	e5c01000 	strb	r1, [r0]
    80b0:	e12fff1e 	bx	lr

000080b4 <GET32>:
    80b4:	e5900000 	ldr	r0, [r0]
    80b8:	e12fff1e 	bx	lr

000080bc <GETPC>:
    80bc:	e1a0000e 	mov	r0, lr
    80c0:	e12fff1e 	bx	lr

000080c4 <BRANCHTO>:
    80c4:	e12fff10 	bx	r0

000080c8 <dummy>:
    80c8:	e12fff1e 	bx	lr

000080cc <irq>:
    80cc:	ea0001ad 	b	8788 <ctx_switch_from_irq>

000080d0 <funcA>:
    80d0:	e24dd008 	sub	sp, sp, #8
    80d4:	e3a03000 	mov	r3, #0
    80d8:	e58d3004 	str	r3, [sp, #4]
    80dc:	e59d3004 	ldr	r3, [sp, #4]
    80e0:	e2833001 	add	r3, r3, #1
    80e4:	e58d3004 	str	r3, [sp, #4]
    80e8:	eafffffb 	b	80dc <funcA+0xc>

000080ec <funcB>:
    80ec:	e24dd008 	sub	sp, sp, #8
    80f0:	e3a03001 	mov	r3, #1
    80f4:	e58d3004 	str	r3, [sp, #4]
    80f8:	e59d3004 	ldr	r3, [sp, #4]
    80fc:	e2833002 	add	r3, r3, #2
    8100:	e58d3004 	str	r3, [sp, #4]
    8104:	eafffffb 	b	80f8 <funcB+0xc>

00008108 <kmain>:
    8108:	e92d4008 	push	{r3, lr}
    810c:	eb000079 	bl	82f8 <init_hw>
    8110:	eb0000bb 	bl	8404 <init_sched>
    8114:	e59f0020 	ldr	r0, [pc, #32]	; 813c <kmain+0x34>
    8118:	e3a01000 	mov	r1, #0
    811c:	e3a02c02 	mov	r2, #512	; 0x200
    8120:	eb0000df 	bl	84a4 <create_process>
    8124:	e59f0014 	ldr	r0, [pc, #20]	; 8140 <kmain+0x38>
    8128:	e3a01000 	mov	r1, #0
    812c:	e3a02c02 	mov	r2, #512	; 0x200
    8130:	eb0000db 	bl	84a4 <create_process>
    8134:	eb000184 	bl	874c <start_sched>
    8138:	eafffffe 	b	8138 <kmain+0x30>
    813c:	000080ec 	andeq	r8, r0, ip, ror #1
    8140:	000080d0 	ldrdeq	r8, [r0], -r0

00008144 <phyAlloc_alloc>:
    8144:	e92d0030 	push	{r4, r5}
    8148:	e24dd008 	sub	sp, sp, #8
    814c:	e58d0004 	str	r0, [sp, #4]
    8150:	e59f3094 	ldr	r3, [pc, #148]	; 81ec <phyAlloc_alloc+0xa8>
    8154:	e5934000 	ldr	r4, [r3]
    8158:	e59f508c 	ldr	r5, [pc, #140]	; 81ec <phyAlloc_alloc+0xa8>
    815c:	ea000001 	b	8168 <phyAlloc_alloc+0x24>
    8160:	e1a05004 	mov	r5, r4
    8164:	e5944000 	ldr	r4, [r4]
    8168:	e3540000 	cmp	r4, #0
    816c:	0a000003 	beq	8180 <phyAlloc_alloc+0x3c>
    8170:	e5942004 	ldr	r2, [r4, #4]
    8174:	e59d3004 	ldr	r3, [sp, #4]
    8178:	e1520003 	cmp	r2, r3
    817c:	3afffff7 	bcc	8160 <phyAlloc_alloc+0x1c>
    8180:	e3540000 	cmp	r4, #0
    8184:	1a000011 	bne	81d0 <phyAlloc_alloc+0x8c>
    8188:	e59f3060 	ldr	r3, [pc, #96]	; 81f0 <phyAlloc_alloc+0xac>
    818c:	e5934000 	ldr	r4, [r3]
    8190:	e59f3058 	ldr	r3, [pc, #88]	; 81f0 <phyAlloc_alloc+0xac>
    8194:	e5932000 	ldr	r2, [r3]
    8198:	e59d3004 	ldr	r3, [sp, #4]
    819c:	e2833003 	add	r3, r3, #3
    81a0:	e3c33003 	bic	r3, r3, #3
    81a4:	e0822003 	add	r2, r2, r3
    81a8:	e59f3040 	ldr	r3, [pc, #64]	; 81f0 <phyAlloc_alloc+0xac>
    81ac:	e5832000 	str	r2, [r3]
    81b0:	e59f3038 	ldr	r3, [pc, #56]	; 81f0 <phyAlloc_alloc+0xac>
    81b4:	e5932000 	ldr	r2, [r3]
    81b8:	e59f3034 	ldr	r3, [pc, #52]	; 81f4 <phyAlloc_alloc+0xb0>
    81bc:	e5933000 	ldr	r3, [r3]
    81c0:	e1520003 	cmp	r2, r3
    81c4:	9a000003 	bls	81d8 <phyAlloc_alloc+0x94>
    81c8:	e3a03000 	mov	r3, #0
    81cc:	ea000002 	b	81dc <phyAlloc_alloc+0x98>
    81d0:	e5943000 	ldr	r3, [r4]
    81d4:	e5853000 	str	r3, [r5]
    81d8:	e1a03004 	mov	r3, r4
    81dc:	e1a00003 	mov	r0, r3
    81e0:	e28dd008 	add	sp, sp, #8
    81e4:	e8bd0030 	pop	{r4, r5}
    81e8:	e12fff1e 	bx	lr
    81ec:	000088c8 	andeq	r8, r0, r8, asr #17
    81f0:	000088cc 	andeq	r8, r0, ip, asr #17
    81f4:	000088d0 	ldrdeq	r8, [r0], -r0

000081f8 <phyAlloc_free>:
    81f8:	e52d4004 	push	{r4}		; (str r4, [sp, #-4]!)
    81fc:	e24dd00c 	sub	sp, sp, #12
    8200:	e58d0004 	str	r0, [sp, #4]
    8204:	e58d1000 	str	r1, [sp]
    8208:	e59d4004 	ldr	r4, [sp, #4]
    820c:	e59d3000 	ldr	r3, [sp]
    8210:	e2833003 	add	r3, r3, #3
    8214:	e3c33003 	bic	r3, r3, #3
    8218:	e5843004 	str	r3, [r4, #4]
    821c:	e59f3018 	ldr	r3, [pc, #24]	; 823c <phyAlloc_free+0x44>
    8220:	e5933000 	ldr	r3, [r3]
    8224:	e5843000 	str	r3, [r4]
    8228:	e59f300c 	ldr	r3, [pc, #12]	; 823c <phyAlloc_free+0x44>
    822c:	e5834000 	str	r4, [r3]
    8230:	e28dd00c 	add	sp, sp, #12
    8234:	e8bd0010 	pop	{r4}
    8238:	e12fff1e 	bx	lr
    823c:	000088c8 	andeq	r8, r0, r8, asr #17

00008240 <phyAlloc_init>:
    8240:	e24dd008 	sub	sp, sp, #8
    8244:	e58d0004 	str	r0, [sp, #4]
    8248:	e58d1000 	str	r1, [sp]
    824c:	e59f3020 	ldr	r3, [pc, #32]	; 8274 <phyAlloc_init+0x34>
    8250:	e59d2004 	ldr	r2, [sp, #4]
    8254:	e5832000 	str	r2, [r3]
    8258:	e59d2004 	ldr	r2, [sp, #4]
    825c:	e59d3000 	ldr	r3, [sp]
    8260:	e0822003 	add	r2, r2, r3
    8264:	e59f300c 	ldr	r3, [pc, #12]	; 8278 <phyAlloc_init+0x38>
    8268:	e5832000 	str	r2, [r3]
    826c:	e28dd008 	add	sp, sp, #8
    8270:	e12fff1e 	bx	lr
    8274:	000088cc 	andeq	r8, r0, ip, asr #17
    8278:	000088d0 	ldrdeq	r8, [r0], -r0

0000827c <set_tick_and_enable_timer>:
    827c:	e52de004 	push	{lr}		; (str lr, [sp, #-4]!)
    8280:	e24dd00c 	sub	sp, sp, #12
    8284:	e59f0030 	ldr	r0, [pc, #48]	; 82bc <set_tick_and_enable_timer+0x40>
    8288:	ebffff89 	bl	80b4 <GET32>
    828c:	e58d0004 	str	r0, [sp, #4]
    8290:	e59d3004 	ldr	r3, [sp, #4]
    8294:	e2833702 	add	r3, r3, #524288	; 0x80000
    8298:	e58d3004 	str	r3, [sp, #4]
    829c:	e59f001c 	ldr	r0, [pc, #28]	; 82c0 <set_tick_and_enable_timer+0x44>
    82a0:	e59d1004 	ldr	r1, [sp, #4]
    82a4:	ebffff7c 	bl	809c <PUT32>
    82a8:	e59f0014 	ldr	r0, [pc, #20]	; 82c4 <set_tick_and_enable_timer+0x48>
    82ac:	e3a01002 	mov	r1, #2
    82b0:	ebffff79 	bl	809c <PUT32>
    82b4:	e28dd00c 	add	sp, sp, #12
    82b8:	e8bd8000 	pop	{pc}
    82bc:	20003004 	andcs	r3, r0, r4
    82c0:	20003010 	andcs	r3, r0, r0, lsl r0
    82c4:	20003000 	andcs	r3, r0, r0

000082c8 <led_off>:
    82c8:	e92d4008 	push	{r3, lr}
    82cc:	e59f0008 	ldr	r0, [pc, #8]	; 82dc <led_off+0x14>
    82d0:	e3a01801 	mov	r1, #65536	; 0x10000
    82d4:	ebffff70 	bl	809c <PUT32>
    82d8:	e8bd8008 	pop	{r3, pc}
    82dc:	2020001c 	eorcs	r0, r0, ip, lsl r0

000082e0 <led_on>:
    82e0:	e92d4008 	push	{r3, lr}
    82e4:	e59f0008 	ldr	r0, [pc, #8]	; 82f4 <led_on+0x14>
    82e8:	e3a01801 	mov	r1, #65536	; 0x10000
    82ec:	ebffff6a 	bl	809c <PUT32>
    82f0:	e8bd8008 	pop	{r3, pc}
    82f4:	20200028 	eorcs	r0, r0, r8, lsr #32

000082f8 <init_hw>:
    82f8:	e52de004 	push	{lr}		; (str lr, [sp, #-4]!)
    82fc:	e24dd00c 	sub	sp, sp, #12
    8300:	e59f0098 	ldr	r0, [pc, #152]	; 83a0 <init_hw+0xa8>
    8304:	ebffff6a 	bl	80b4 <GET32>
    8308:	e58d0004 	str	r0, [sp, #4]
    830c:	e59d3004 	ldr	r3, [sp, #4]
    8310:	e3c33707 	bic	r3, r3, #1835008	; 0x1c0000
    8314:	e58d3004 	str	r3, [sp, #4]
    8318:	e59d3004 	ldr	r3, [sp, #4]
    831c:	e3833701 	orr	r3, r3, #262144	; 0x40000
    8320:	e58d3004 	str	r3, [sp, #4]
    8324:	e59f0074 	ldr	r0, [pc, #116]	; 83a0 <init_hw+0xa8>
    8328:	e59d1004 	ldr	r1, [sp, #4]
    832c:	ebffff5a 	bl	809c <PUT32>
    8330:	e59f006c 	ldr	r0, [pc, #108]	; 83a4 <init_hw+0xac>
    8334:	e3a01801 	mov	r1, #65536	; 0x10000
    8338:	ebffff57 	bl	809c <PUT32>
    833c:	e59f0064 	ldr	r0, [pc, #100]	; 83a8 <init_hw+0xb0>
    8340:	ebffff5b 	bl	80b4 <GET32>
    8344:	e58d0000 	str	r0, [sp]
    8348:	e59d3000 	ldr	r3, [sp]
    834c:	e2833702 	add	r3, r3, #524288	; 0x80000
    8350:	e58d3000 	str	r3, [sp]
    8354:	e59f0050 	ldr	r0, [pc, #80]	; 83ac <init_hw+0xb4>
    8358:	e59d1000 	ldr	r1, [sp]
    835c:	ebffff4e 	bl	809c <PUT32>
    8360:	e59f0048 	ldr	r0, [pc, #72]	; 83b0 <init_hw+0xb8>
    8364:	e3a01002 	mov	r1, #2
    8368:	ebffff4b 	bl	809c <PUT32>
    836c:	e59f0040 	ldr	r0, [pc, #64]	; 83b4 <init_hw+0xbc>
    8370:	e3a01002 	mov	r1, #2
    8374:	ebffff48 	bl	809c <PUT32>
    8378:	e92d0001 	push	{r0}
    837c:	e10f0000 	mrs	r0, CPSR
    8380:	e3800080 	orr	r0, r0, #128	; 0x80
    8384:	e121f000 	msr	CPSR_c, r0
    8388:	e8bd0001 	pop	{r0}
    838c:	e3a00805 	mov	r0, #327680	; 0x50000
    8390:	e3a01a32 	mov	r1, #204800	; 0x32000
    8394:	ebffffa9 	bl	8240 <phyAlloc_init>
    8398:	e28dd00c 	add	sp, sp, #12
    839c:	e8bd8000 	pop	{pc}
    83a0:	20200004 	eorcs	r0, r0, r4
    83a4:	2020001c 	eorcs	r0, r0, ip, lsl r0
    83a8:	20003004 	andcs	r3, r0, r4
    83ac:	20003010 	andcs	r3, r0, r0, lsl r0
    83b0:	20003000 	andcs	r3, r0, r0
    83b4:	2000b210 	andcs	fp, r0, r0, lsl r2

000083b8 <init_ctx>:
    83b8:	e52de004 	push	{lr}		; (str lr, [sp, #-4]!)
    83bc:	e24dd00c 	sub	sp, sp, #12
    83c0:	e58d0004 	str	r0, [sp, #4]
    83c4:	e58d1000 	str	r1, [sp]
    83c8:	e59d0000 	ldr	r0, [sp]
    83cc:	ebffff5c 	bl	8144 <phyAlloc_alloc>
    83d0:	e1a03000 	mov	r3, r0
    83d4:	e1a02003 	mov	r2, r3
    83d8:	e59d3000 	ldr	r3, [sp]
    83dc:	e0823003 	add	r3, r2, r3
    83e0:	e2432038 	sub	r2, r3, #56	; 0x38
    83e4:	e59d3004 	ldr	r3, [sp, #4]
    83e8:	e5832000 	str	r2, [r3]
    83ec:	e59f200c 	ldr	r2, [pc, #12]	; 8400 <init_ctx+0x48>
    83f0:	e59d3004 	ldr	r3, [sp, #4]
    83f4:	e5832004 	str	r2, [r3, #4]
    83f8:	e28dd00c 	add	sp, sp, #12
    83fc:	e8bd8000 	pop	{pc}
    8400:	000085d0 	ldrdeq	r8, [r0], -r0

00008404 <init_sched>:
    8404:	e59f3018 	ldr	r3, [pc, #24]	; 8424 <init_sched+0x20>
    8408:	e59f2018 	ldr	r2, [pc, #24]	; 8428 <init_sched+0x24>
    840c:	e5832000 	str	r2, [r3]
    8410:	e59f3014 	ldr	r3, [pc, #20]	; 842c <init_sched+0x28>
    8414:	e5933000 	ldr	r3, [r3]
    8418:	e3a02000 	mov	r2, #0
    841c:	e5832000 	str	r2, [r3]
    8420:	e12fff1e 	bx	lr
    8424:	000088d4 	ldrdeq	r8, [r0], -r4
    8428:	00008728 	andeq	r8, r0, r8, lsr #14
    842c:	000088d8 	ldrdeq	r8, [r0], -r8	; <UNPREDICTABLE>

00008430 <init_pcb>:
    8430:	e52de004 	push	{lr}		; (str lr, [sp, #-4]!)
    8434:	e24dd01c 	sub	sp, sp, #28
    8438:	e58d000c 	str	r0, [sp, #12]
    843c:	e58d1008 	str	r1, [sp, #8]
    8440:	e58d2004 	str	r2, [sp, #4]
    8444:	e58d3000 	str	r3, [sp]
    8448:	e59d300c 	ldr	r3, [sp, #12]
    844c:	e3a02000 	mov	r2, #0
    8450:	e5c32000 	strb	r2, [r3]
    8454:	e59d300c 	ldr	r3, [sp, #12]
    8458:	e59d2008 	ldr	r2, [sp, #8]
    845c:	e5832004 	str	r2, [r3, #4]
    8460:	e59d300c 	ldr	r3, [sp, #12]
    8464:	e59d2004 	ldr	r2, [sp, #4]
    8468:	e5832008 	str	r2, [r3, #8]
    846c:	e3a00008 	mov	r0, #8
    8470:	ebffff33 	bl	8144 <phyAlloc_alloc>
    8474:	e58d0014 	str	r0, [sp, #20]
    8478:	e59d0014 	ldr	r0, [sp, #20]
    847c:	e59d1000 	ldr	r1, [sp]
    8480:	ebffffcc 	bl	83b8 <init_ctx>
    8484:	e59d300c 	ldr	r3, [sp, #12]
    8488:	e59d2014 	ldr	r2, [sp, #20]
    848c:	e583200c 	str	r2, [r3, #12]
    8490:	e59d300c 	ldr	r3, [sp, #12]
    8494:	e59d2000 	ldr	r2, [sp]
    8498:	e5832010 	str	r2, [r3, #16]
    849c:	e28dd01c 	add	sp, sp, #28
    84a0:	e8bd8000 	pop	{pc}

000084a4 <create_process>:
    84a4:	e52de004 	push	{lr}		; (str lr, [sp, #-4]!)
    84a8:	e24dd01c 	sub	sp, sp, #28
    84ac:	e58d000c 	str	r0, [sp, #12]
    84b0:	e58d1008 	str	r1, [sp, #8]
    84b4:	e58d2004 	str	r2, [sp, #4]
    84b8:	e92d0001 	push	{r0}
    84bc:	e10f0000 	mrs	r0, CPSR
    84c0:	e3800080 	orr	r0, r0, #128	; 0x80
    84c4:	e121f000 	msr	CPSR_c, r0
    84c8:	e8bd0001 	pop	{r0}
    84cc:	e3a0001c 	mov	r0, #28
    84d0:	ebffff1b 	bl	8144 <phyAlloc_alloc>
    84d4:	e58d0014 	str	r0, [sp, #20]
    84d8:	e59d0014 	ldr	r0, [sp, #20]
    84dc:	e59d100c 	ldr	r1, [sp, #12]
    84e0:	e59d2008 	ldr	r2, [sp, #8]
    84e4:	e59d3004 	ldr	r3, [sp, #4]
    84e8:	ebffffd0 	bl	8430 <init_pcb>
    84ec:	e59f30d8 	ldr	r3, [pc, #216]	; 85cc <create_process+0x128>
    84f0:	e5933000 	ldr	r3, [r3]
    84f4:	e5933000 	ldr	r3, [r3]
    84f8:	e3530000 	cmp	r3, #0
    84fc:	1a00000e 	bne	853c <create_process+0x98>
    8500:	e59f30c4 	ldr	r3, [pc, #196]	; 85cc <create_process+0x128>
    8504:	e5933000 	ldr	r3, [r3]
    8508:	e59d2014 	ldr	r2, [sp, #20]
    850c:	e5832000 	str	r2, [r3]
    8510:	e59f30b4 	ldr	r3, [pc, #180]	; 85cc <create_process+0x128>
    8514:	e5933000 	ldr	r3, [r3]
    8518:	e59d2014 	ldr	r2, [sp, #20]
    851c:	e5832004 	str	r2, [r3, #4]
    8520:	e59d3014 	ldr	r3, [sp, #20]
    8524:	e59d2014 	ldr	r2, [sp, #20]
    8528:	e5832014 	str	r2, [r3, #20]
    852c:	e59d3014 	ldr	r3, [sp, #20]
    8530:	e59d2014 	ldr	r2, [sp, #20]
    8534:	e5832018 	str	r2, [r3, #24]
    8538:	ea00001b 	b	85ac <create_process+0x108>
    853c:	e59f3088 	ldr	r3, [pc, #136]	; 85cc <create_process+0x128>
    8540:	e5933000 	ldr	r3, [r3]
    8544:	e5932004 	ldr	r2, [r3, #4]
    8548:	e59d3014 	ldr	r3, [sp, #20]
    854c:	e5832018 	str	r2, [r3, #24]
    8550:	e59f3074 	ldr	r3, [pc, #116]	; 85cc <create_process+0x128>
    8554:	e5933000 	ldr	r3, [r3]
    8558:	e5933004 	ldr	r3, [r3, #4]
    855c:	e59d2014 	ldr	r2, [sp, #20]
    8560:	e5832014 	str	r2, [r3, #20]
    8564:	e59f3060 	ldr	r3, [pc, #96]	; 85cc <create_process+0x128>
    8568:	e5933000 	ldr	r3, [r3]
    856c:	e59d2014 	ldr	r2, [sp, #20]
    8570:	e5832004 	str	r2, [r3, #4]
    8574:	e59f3050 	ldr	r3, [pc, #80]	; 85cc <create_process+0x128>
    8578:	e5933000 	ldr	r3, [r3]
    857c:	e5933004 	ldr	r3, [r3, #4]
    8580:	e59f2044 	ldr	r2, [pc, #68]	; 85cc <create_process+0x128>
    8584:	e5922000 	ldr	r2, [r2]
    8588:	e5922000 	ldr	r2, [r2]
    858c:	e5832014 	str	r2, [r3, #20]
    8590:	e59f3034 	ldr	r3, [pc, #52]	; 85cc <create_process+0x128>
    8594:	e5933000 	ldr	r3, [r3]
    8598:	e5933000 	ldr	r3, [r3]
    859c:	e59f2028 	ldr	r2, [pc, #40]	; 85cc <create_process+0x128>
    85a0:	e5922000 	ldr	r2, [r2]
    85a4:	e5922004 	ldr	r2, [r2, #4]
    85a8:	e5832018 	str	r2, [r3, #24]
    85ac:	ebffff32 	bl	827c <set_tick_and_enable_timer>
    85b0:	e92d0001 	push	{r0}
    85b4:	e10f0000 	mrs	r0, CPSR
    85b8:	e3c00080 	bic	r0, r0, #128	; 0x80
    85bc:	e121f000 	msr	CPSR_c, r0
    85c0:	e8bd0001 	pop	{r0}
    85c4:	e28dd01c 	add	sp, sp, #28
    85c8:	e8bd8000 	pop	{pc}
    85cc:	000088d8 	ldrdeq	r8, [r0], -r8	; <UNPREDICTABLE>

000085d0 <start_current_process>:
    85d0:	e92d4008 	push	{r3, lr}
    85d4:	e59f3040 	ldr	r3, [pc, #64]	; 861c <start_current_process+0x4c>
    85d8:	e5933000 	ldr	r3, [r3]
    85dc:	e3a02002 	mov	r2, #2
    85e0:	e5c32000 	strb	r2, [r3]
    85e4:	e59f3030 	ldr	r3, [pc, #48]	; 861c <start_current_process+0x4c>
    85e8:	e5933000 	ldr	r3, [r3]
    85ec:	e5933004 	ldr	r3, [r3, #4]
    85f0:	e59f2024 	ldr	r2, [pc, #36]	; 861c <start_current_process+0x4c>
    85f4:	e5922000 	ldr	r2, [r2]
    85f8:	e5922008 	ldr	r2, [r2, #8]
    85fc:	e1a00002 	mov	r0, r2
    8600:	e12fff33 	blx	r3
    8604:	e59f3010 	ldr	r3, [pc, #16]	; 861c <start_current_process+0x4c>
    8608:	e5933000 	ldr	r3, [r3]
    860c:	e3a02004 	mov	r2, #4
    8610:	e5c32000 	strb	r2, [r3]
    8614:	eb00008d 	bl	8850 <ctx_switch>
    8618:	e8bd8008 	pop	{r3, pc}
    861c:	000088dc 	ldrdeq	r8, [r0], -ip

00008620 <elect>:
    8620:	e52de004 	push	{lr}		; (str lr, [sp, #-4]!)
    8624:	e24dd00c 	sub	sp, sp, #12
    8628:	eb000036 	bl	8708 <scheduler>
    862c:	e1a02000 	mov	r2, r0
    8630:	e59f30cc 	ldr	r3, [pc, #204]	; 8704 <elect+0xe4>
    8634:	e5832000 	str	r2, [r3]
    8638:	ea00002a 	b	86e8 <elect+0xc8>
    863c:	e59f30c0 	ldr	r3, [pc, #192]	; 8704 <elect+0xe4>
    8640:	e5933000 	ldr	r3, [r3]
    8644:	e5933014 	ldr	r3, [r3, #20]
    8648:	e58d3004 	str	r3, [sp, #4]
    864c:	e59f30b0 	ldr	r3, [pc, #176]	; 8704 <elect+0xe4>
    8650:	e5933000 	ldr	r3, [r3]
    8654:	e5933018 	ldr	r3, [r3, #24]
    8658:	e59f20a4 	ldr	r2, [pc, #164]	; 8704 <elect+0xe4>
    865c:	e5922000 	ldr	r2, [r2]
    8660:	e5922014 	ldr	r2, [r2, #20]
    8664:	e5832014 	str	r2, [r3, #20]
    8668:	e59f3094 	ldr	r3, [pc, #148]	; 8704 <elect+0xe4>
    866c:	e5933000 	ldr	r3, [r3]
    8670:	e5933014 	ldr	r3, [r3, #20]
    8674:	e59f2088 	ldr	r2, [pc, #136]	; 8704 <elect+0xe4>
    8678:	e5922000 	ldr	r2, [r2]
    867c:	e5922018 	ldr	r2, [r2, #24]
    8680:	e5832018 	str	r2, [r3, #24]
    8684:	e59f3078 	ldr	r3, [pc, #120]	; 8704 <elect+0xe4>
    8688:	e5933000 	ldr	r3, [r3]
    868c:	e593300c 	ldr	r3, [r3, #12]
    8690:	e5933000 	ldr	r3, [r3]
    8694:	e1a02003 	mov	r2, r3
    8698:	e59f3064 	ldr	r3, [pc, #100]	; 8704 <elect+0xe4>
    869c:	e5933000 	ldr	r3, [r3]
    86a0:	e5933010 	ldr	r3, [r3, #16]
    86a4:	e1a00002 	mov	r0, r2
    86a8:	e1a01003 	mov	r1, r3
    86ac:	ebfffed1 	bl	81f8 <phyAlloc_free>
    86b0:	e59f304c 	ldr	r3, [pc, #76]	; 8704 <elect+0xe4>
    86b4:	e5933000 	ldr	r3, [r3]
    86b8:	e593300c 	ldr	r3, [r3, #12]
    86bc:	e1a00003 	mov	r0, r3
    86c0:	e3a01008 	mov	r1, #8
    86c4:	ebfffecb 	bl	81f8 <phyAlloc_free>
    86c8:	e59f3034 	ldr	r3, [pc, #52]	; 8704 <elect+0xe4>
    86cc:	e5933000 	ldr	r3, [r3]
    86d0:	e1a00003 	mov	r0, r3
    86d4:	e3a0101c 	mov	r1, #28
    86d8:	ebfffec6 	bl	81f8 <phyAlloc_free>
    86dc:	e59f3020 	ldr	r3, [pc, #32]	; 8704 <elect+0xe4>
    86e0:	e59d2004 	ldr	r2, [sp, #4]
    86e4:	e5832000 	str	r2, [r3]
    86e8:	e59f3014 	ldr	r3, [pc, #20]	; 8704 <elect+0xe4>
    86ec:	e5933000 	ldr	r3, [r3]
    86f0:	e5d33000 	ldrb	r3, [r3]
    86f4:	e3530004 	cmp	r3, #4
    86f8:	0affffcf 	beq	863c <elect+0x1c>
    86fc:	e28dd00c 	add	sp, sp, #12
    8700:	e8bd8000 	pop	{pc}
    8704:	000088dc 	ldrdeq	r8, [r0], -ip

00008708 <scheduler>:
    8708:	e92d4008 	push	{r3, lr}
    870c:	e59f3010 	ldr	r3, [pc, #16]	; 8724 <scheduler+0x1c>
    8710:	e5933000 	ldr	r3, [r3]
    8714:	e12fff33 	blx	r3
    8718:	e1a03000 	mov	r3, r0
    871c:	e1a00003 	mov	r0, r3
    8720:	e8bd8008 	pop	{r3, pc}
    8724:	000088d4 	ldrdeq	r8, [r0], -r4

00008728 <sched_round_robin>:
    8728:	e59f300c 	ldr	r3, [pc, #12]	; 873c <sched_round_robin+0x14>
    872c:	e5933000 	ldr	r3, [r3]
    8730:	e5933014 	ldr	r3, [r3, #20]
    8734:	e1a00003 	mov	r0, r3
    8738:	e12fff1e 	bx	lr
    873c:	000088dc 	ldrdeq	r8, [r0], -ip

00008740 <sched_fixed_priority>:
    8740:	e3a03000 	mov	r3, #0
    8744:	e1a00003 	mov	r0, r3
    8748:	e12fff1e 	bx	lr

0000874c <start_sched>:
    874c:	e92d4008 	push	{r3, lr}
    8750:	e59f3028 	ldr	r3, [pc, #40]	; 8780 <start_sched+0x34>
    8754:	e5933000 	ldr	r3, [r3]
    8758:	e5932000 	ldr	r2, [r3]
    875c:	e59f3020 	ldr	r3, [pc, #32]	; 8784 <start_sched+0x38>
    8760:	e5832000 	str	r2, [r3]
    8764:	e92d0001 	push	{r0}
    8768:	e10f0000 	mrs	r0, CPSR
    876c:	e3c00080 	bic	r0, r0, #128	; 0x80
    8770:	e121f000 	msr	CPSR_c, r0
    8774:	e8bd0001 	pop	{r0}
    8778:	ebfffebf 	bl	827c <set_tick_and_enable_timer>
    877c:	e8bd8008 	pop	{r3, pc}
    8780:	000088d8 	ldrdeq	r8, [r0], -r8	; <UNPREDICTABLE>
    8784:	000088dc 	ldrdeq	r8, [r0], -ip

00008788 <ctx_switch_from_irq>:
    8788:	e92d0001 	push	{r0}
    878c:	e10f0000 	mrs	r0, CPSR
    8790:	e3800080 	orr	r0, r0, #128	; 0x80
    8794:	e121f000 	msr	CPSR_c, r0
    8798:	e8bd0001 	pop	{r0}
    879c:	e24ee004 	sub	lr, lr, #4
    87a0:	f96d0513 	srsdb	sp!, #19
    87a4:	f1020013 	cps	#19
    87a8:	e92d1fff 	push	{r0, r1, r2, r3, r4, r5, r6, r7, r8, r9, sl, fp, ip}
    87ac:	e59f3098 	ldr	r3, [pc, #152]	; 884c <ctx_switch_from_irq+0xc4>
    87b0:	e5933000 	ldr	r3, [r3]
    87b4:	e5d33000 	ldrb	r3, [r3]
    87b8:	e3530002 	cmp	r3, #2
    87bc:	1a000009 	bne	87e8 <ctx_switch_from_irq+0x60>
    87c0:	e59f3084 	ldr	r3, [pc, #132]	; 884c <ctx_switch_from_irq+0xc4>
    87c4:	e5933000 	ldr	r3, [r3]
    87c8:	e593300c 	ldr	r3, [r3, #12]
    87cc:	e1a0200d 	mov	r2, sp
    87d0:	e5832000 	str	r2, [r3]
    87d4:	e59f3070 	ldr	r3, [pc, #112]	; 884c <ctx_switch_from_irq+0xc4>
    87d8:	e5933000 	ldr	r3, [r3]
    87dc:	e593300c 	ldr	r3, [r3, #12]
    87e0:	e1a0200e 	mov	r2, lr
    87e4:	e5832004 	str	r2, [r3, #4]
    87e8:	ebffff8c 	bl	8620 <elect>
    87ec:	e59f3058 	ldr	r3, [pc, #88]	; 884c <ctx_switch_from_irq+0xc4>
    87f0:	e5933000 	ldr	r3, [r3]
    87f4:	e593300c 	ldr	r3, [r3, #12]
    87f8:	e5933000 	ldr	r3, [r3]
    87fc:	e1a0d003 	mov	sp, r3
    8800:	e59f3044 	ldr	r3, [pc, #68]	; 884c <ctx_switch_from_irq+0xc4>
    8804:	e5933000 	ldr	r3, [r3]
    8808:	e593300c 	ldr	r3, [r3, #12]
    880c:	e5933004 	ldr	r3, [r3, #4]
    8810:	e1a0e003 	mov	lr, r3
    8814:	e8bd1fff 	pop	{r0, r1, r2, r3, r4, r5, r6, r7, r8, r9, sl, fp, ip}
    8818:	ebfffe97 	bl	827c <set_tick_and_enable_timer>
    881c:	e92d0001 	push	{r0}
    8820:	e10f0000 	mrs	r0, CPSR
    8824:	e3c00080 	bic	r0, r0, #128	; 0x80
    8828:	e121f000 	msr	CPSR_c, r0
    882c:	e8bd0001 	pop	{r0}
    8830:	e59f3014 	ldr	r3, [pc, #20]	; 884c <ctx_switch_from_irq+0xc4>
    8834:	e5933000 	ldr	r3, [r3]
    8838:	e5d33000 	ldrb	r3, [r3]
    883c:	e3530000 	cmp	r3, #0
    8840:	1a000000 	bne	8848 <ctx_switch_from_irq+0xc0>
    8844:	ebffff61 	bl	85d0 <start_current_process>
    8848:	f8bd0a00 	rfeia	sp!
    884c:	000088dc 	ldrdeq	r8, [r0], -ip

00008850 <ctx_switch>:
    8850:	e92d1fff 	push	{r0, r1, r2, r3, r4, r5, r6, r7, r8, r9, sl, fp, ip}
    8854:	e59f3068 	ldr	r3, [pc, #104]	; 88c4 <ctx_switch+0x74>
    8858:	e5933000 	ldr	r3, [r3]
    885c:	e5d33000 	ldrb	r3, [r3]
    8860:	e3530002 	cmp	r3, #2
    8864:	1a000009 	bne	8890 <ctx_switch+0x40>
    8868:	e59f3054 	ldr	r3, [pc, #84]	; 88c4 <ctx_switch+0x74>
    886c:	e5933000 	ldr	r3, [r3]
    8870:	e593300c 	ldr	r3, [r3, #12]
    8874:	e1a0200d 	mov	r2, sp
    8878:	e5832000 	str	r2, [r3]
    887c:	e59f3040 	ldr	r3, [pc, #64]	; 88c4 <ctx_switch+0x74>
    8880:	e5933000 	ldr	r3, [r3]
    8884:	e593300c 	ldr	r3, [r3, #12]
    8888:	e1a0200e 	mov	r2, lr
    888c:	e5832004 	str	r2, [r3, #4]
    8890:	ebffff62 	bl	8620 <elect>
    8894:	e59f3028 	ldr	r3, [pc, #40]	; 88c4 <ctx_switch+0x74>
    8898:	e5933000 	ldr	r3, [r3]
    889c:	e593300c 	ldr	r3, [r3, #12]
    88a0:	e5933000 	ldr	r3, [r3]
    88a4:	e1a0d003 	mov	sp, r3
    88a8:	e59f3014 	ldr	r3, [pc, #20]	; 88c4 <ctx_switch+0x74>
    88ac:	e5933000 	ldr	r3, [r3]
    88b0:	e593300c 	ldr	r3, [r3, #12]
    88b4:	e5933004 	ldr	r3, [r3, #4]
    88b8:	e1a0e003 	mov	lr, r3
    88bc:	e8bd1fff 	pop	{r0, r1, r2, r3, r4, r5, r6, r7, r8, r9, sl, fp, ip}
    88c0:	e12fff1e 	bx	lr
    88c4:	000088dc 	ldrdeq	r8, [r0], -ip

Disassembly of section .bss:

000088c8 <freelist>:
    88c8:	00000000 	andeq	r0, r0, r0

000088cc <top>:
    88cc:	00000000 	andeq	r0, r0, r0

000088d0 <heap_limit>:
    88d0:	00000000 	andeq	r0, r0, r0

000088d4 <scheduler_function>:
    88d4:	00000000 	andeq	r0, r0, r0

000088d8 <queue_round_robin>:
    88d8:	00000000 	andeq	r0, r0, r0

000088dc <current_process>:
    88dc:	00000000 	andeq	r0, r0, r0

Disassembly of section .ARM.attributes:

00000000 <.ARM.attributes>:
   0:	00003141 	andeq	r3, r0, r1, asr #2
   4:	61656100 	cmnvs	r5, r0, lsl #2
   8:	01006962 	tsteq	r0, r2, ror #18
   c:	00000027 	andeq	r0, r0, r7, lsr #32
  10:	005a3605 	subseq	r3, sl, r5, lsl #12
  14:	01080706 	tsteq	r8, r6, lsl #14
  18:	020a0109 	andeq	r0, sl, #1073741826	; 0x40000002
  1c:	01140412 	tsteq	r4, r2, lsl r4
  20:	03170115 	tsteq	r7, #1073741829	; 0x40000005
  24:	011a0118 	tsteq	sl, r8, lsl r1
  28:	011c031b 	tsteq	ip, fp, lsl r3
  2c:	012c0122 	teqeq	ip, r2, lsr #2
  30:	Address 0x0000000000000030 is out of bounds.


Disassembly of section .comment:

00000000 <.comment>:
   0:	3a434347 	bcc	10d0d24 <__bss_end+0x10c8444>
   4:	4e472820 	cdpmi	8, 4, cr2, cr7, cr0, {1}
   8:	34202955 	strtcc	r2, [r0], #-2389	; 0x955
   c:	312e372e 	teqcc	lr, lr, lsr #14
	...

Disassembly of section .debug_line:

00000000 <.debug_line>:
   0:	00000061 	andeq	r0, r0, r1, rrx
   4:	00200002 	eoreq	r0, r0, r2
   8:	01020000 	mrseq	r0, (UNDEF: 2)
   c:	000d0efb 	strdeq	r0, [sp], -fp
  10:	01010101 	tsteq	r1, r1, lsl #2
  14:	01000000 	mrseq	r0, (UNDEF: 0)
  18:	00010000 	andeq	r0, r1, r0
  1c:	74636576 	strbtvc	r6, [r3], #-1398	; 0x576
  20:	2e73726f 	cdpcs	2, 7, cr7, cr3, cr15, {3}
  24:	00000073 	andeq	r0, r0, r3, ror r0
  28:	05000000 	streq	r0, [r0, #-0]
  2c:	00800002 	addeq	r0, r0, r2
  30:	2f2f1900 	svccs	0x002f1900
  34:	2f2f2f2f 	svccs	0x002f2f2f
  38:	080b032f 	stmdaeq	fp, {r0, r1, r2, r3, r5, r8, r9}
  3c:	2f2f2f20 	svccs	0x002f2f20
  40:	2f322f2f 	svccs	0x00322f2f
  44:	2f2f322f 	svccs	0x002f322f
  48:	302f2f31 	eorcc	r2, pc, r1, lsr pc	; <UNPREDICTABLE>
  4c:	2f2f2f30 	svccs	0x002f2f30
  50:	322f2f2f 	eorcc	r2, pc, #188	; 0xbc
  54:	322f322f 	eorcc	r3, pc, #-268435454	; 0xf0000002
  58:	322f322f 	eorcc	r3, pc, #-268435454	; 0xf0000002
  5c:	3032322f 	eorscc	r3, r2, pc, lsr #4
  60:	01000202 	tsteq	r0, r2, lsl #4
  64:	00005f01 	andeq	r5, r0, r1, lsl #30
  68:	2a000200 	bcs	870 <_start-0x7790>
  6c:	02000000 	andeq	r0, r0, #0
  70:	0d0efb01 	vstreq	d15, [lr, #-4]
  74:	01010100 	mrseq	r0, (UNDEF: 17)
  78:	00000001 	andeq	r0, r0, r1
  7c:	01000001 	tsteq	r0, r1
  80:	72656b00 	rsbvc	r6, r5, #0
  84:	2e6c656e 	cdpcs	5, 6, cr6, cr12, cr14, {3}
  88:	00000063 	andeq	r0, r0, r3, rrx
  8c:	68637300 	stmdavs	r3!, {r8, r9, ip, sp, lr}^
  90:	682e6465 	stmdavs	lr!, {r0, r2, r5, r6, sl, sp, lr}
  94:	00000000 	andeq	r0, r0, r0
  98:	02050000 	andeq	r0, r5, #0
  9c:	000080d0 	ldrdeq	r8, [r0], -r0
  a0:	02002f14 	andeq	r2, r0, #80	; 0x50
  a4:	004c0104 	subeq	r0, ip, r4, lsl #2
  a8:	68010402 	stmdavs	r1, {r1, sl}
  ac:	02002f31 	andeq	r2, r0, #196	; 0xc4
  b0:	004c0104 	subeq	r0, ip, r4, lsl #2
  b4:	68010402 	stmdavs	r1, {r1, sl}
  b8:	2f2f2f33 	svccs	0x002f2f33
  bc:	02008383 	andeq	r8, r0, #201326594	; 0xc000002
  c0:	02320104 	eorseq	r0, r2, #1
  c4:	01010006 	tsteq	r1, r6
  c8:	00000059 	andeq	r0, r0, r9, asr r0
  cc:	00210002 	eoreq	r0, r1, r2
  d0:	01020000 	mrseq	r0, (UNDEF: 2)
  d4:	000d0efb 	strdeq	r0, [sp], -fp
  d8:	01010101 	tsteq	r1, r1, lsl #2
  dc:	01000000 	mrseq	r0, (UNDEF: 0)
  e0:	00010000 	andeq	r0, r1, r0
  e4:	41796870 	cmnmi	r9, r0, ror r8
  e8:	636f6c6c 	cmnvs	pc, #27648	; 0x6c00
  ec:	0000632e 	andeq	r6, r0, lr, lsr #6
  f0:	00000000 	andeq	r0, r0, r0
  f4:	81440205 	cmphi	r4, r5, lsl #4
  f8:	0c030000 	stceq	0, cr0, [r3], {-0}
  fc:	2f4c6701 	svccs	0x004c6701
 100:	02002f2f 	andeq	r2, r0, #188	; 0xbc
 104:	002c0104 	eoreq	r0, ip, r4, lsl #2
 108:	06020402 	streq	r0, [r2], -r2, lsl #8
 10c:	4b86064a 	blmi	fe181a3c <__bss_end+0xfe17915c>
 110:	4cbbf44b 	cfldrsmi	mvf15, [fp], #300	; 0x12c
 114:	83da2f4c 	bicshi	r2, sl, #304	; 0x130
 118:	4b678330 	blmi	19e0de0 <__bss_end+0x19d8500>
 11c:	9f676786 	svcls	0x00676786
 120:	01000802 	tsteq	r0, r2, lsl #16
 124:	00004b01 	andeq	r4, r0, r1, lsl #22
 128:	1b000200 	blne	930 <_start-0x76d0>
 12c:	02000000 	andeq	r0, r0, #0
 130:	0d0efb01 	vstreq	d15, [lr, #-4]
 134:	01010100 	mrseq	r0, (UNDEF: 17)
 138:	00000001 	andeq	r0, r0, r1
 13c:	01000001 	tsteq	r0, r1
 140:	2e776800 	cdpcs	8, 7, cr6, cr7, cr0, {0}
 144:	00000063 	andeq	r0, r0, r3, rrx
 148:	05000000 	streq	r0, [r0, #-0]
 14c:	00827c02 	addeq	r7, r2, r2, lsl #24
 150:	011c0300 	tsteq	ip, r0, lsl #6
 154:	6867674b 	stmdavs	r7!, {r0, r1, r3, r6, r8, r9, sl, sp, lr}^
 158:	9e090367 	cdpls	3, 0, cr0, cr9, cr7, {3}
 15c:	2f4e672f 	svccs	0x004e672f
 160:	674f5167 	strbvs	r5, [pc, -r7, ror #2]
 164:	69696767 	stmdbvs	r9!, {r0, r1, r2, r5, r6, r8, r9, sl, sp, lr}^
 168:	696a6767 	stmdbvs	sl!, {r0, r1, r2, r5, r6, r8, r9, sl, sp, lr}^
 16c:	0267a068 	rsbeq	sl, r7, #104	; 0x68
 170:	01010010 	tsteq	r1, r0, lsl r0
 174:	000000a4 	andeq	r0, r0, r4, lsr #1
 178:	00290002 	eoreq	r0, r9, r2
 17c:	01020000 	mrseq	r0, (UNDEF: 2)
 180:	000d0efb 	strdeq	r0, [sp], -fp
 184:	01010101 	tsteq	r1, r1, lsl #2
 188:	01000000 	mrseq	r0, (UNDEF: 0)
 18c:	00010000 	andeq	r0, r1, r0
 190:	65686373 	strbvs	r6, [r8, #-883]!	; 0x373
 194:	00632e64 	rsbeq	r2, r3, r4, ror #28
 198:	73000000 	movwvc	r0, #0
 19c:	64656863 	strbtvs	r6, [r5], #-2147	; 0x863
 1a0:	0000682e 	andeq	r6, r0, lr, lsr #16
 1a4:	00000000 	andeq	r0, r0, r0
 1a8:	83b80205 			; <UNDEFINED> instruction: 0x83b80205
 1ac:	83170000 	tsthi	r7, #0
 1b0:	69672108 	stmdbvs	r7!, {r3, r8, sp}^
 1b4:	84836713 	strhi	r6, [r3], #1811	; 0x713
 1b8:	686767bc 	stmdavs	r7!, {r2, r3, r4, r5, r7, r8, r9, sl, sp, lr}^
 1bc:	67686767 	strbvs	r6, [r8, -r7, ror #14]!
 1c0:	68a09f4c 	stmiavs	r0!, {r2, r3, r6, r8, r9, sl, fp, ip, pc}
 1c4:	83839fa0 	orrhi	r9, r3, #640	; 0x280
 1c8:	9f9f8567 	svcls	0x009f8567
 1cc:	2fd8d783 	svccs	0x00d8d783
 1d0:	832f689f 	teqhi	pc, #10420224	; 0x9f0000
 1d4:	4c2f83f4 	stcmi	3, cr8, [pc], #-976	; fffffe0c <__bss_end+0xffff752c>
 1d8:	842f854b 	strthi	r8, [pc], #-1355	; 1e0 <_start-0x7e20>
 1dc:	5908d8d7 	stmdbpl	r8, {r0, r1, r2, r4, r6, r7, fp, ip, lr, pc}
 1e0:	0200a0bb 	andeq	sl, r0, #187	; 0xbb
 1e4:	76030104 	strvc	r0, [r3], -r4, lsl #2
 1e8:	9e0c0366 	cdpls	3, 0, cr0, cr12, cr6, {3}
 1ec:	68832f68 	stmvs	r3, {r3, r5, r6, r8, r9, sl, fp, sp}
 1f0:	14686713 	strbtne	r6, [r8], #-1811	; 0x713
 1f4:	9f2f4c2f 	svcls	0x002f4c2f
 1f8:	14682f9f 	strbtne	r2, [r8], #-3999	; 0xf9f
 1fc:	302f2fa0 	eorcc	r2, pc, r0, lsr #31
 200:	a29f9f2f 	addsge	r9, pc, #188	; 0xbc
 204:	30a09f31 	adccc	r9, r0, r1, lsr pc
 208:	309fa02f 	addscc	sl, pc, pc, lsr #32
 20c:	3015144b 	andscc	r1, r5, fp, asr #8
 210:	31a29f9f 	strexdcc	r9, pc, [r2]
 214:	0230a09f 	eorseq	sl, r0, #159	; 0x9f
 218:	01010004 	tsteq	r1, r4

Disassembly of section .debug_info:

00000000 <.debug_info>:
   0:	0000005c 	andeq	r0, r0, ip, asr r0
   4:	00000002 	andeq	r0, r0, r2
   8:	01040000 	mrseq	r0, (UNDEF: 4)
   c:	00000000 	andeq	r0, r0, r0
  10:	00008000 	andeq	r8, r0, r0
  14:	000080d0 	ldrdeq	r8, [r0], -r0
  18:	74636576 	strbtvc	r6, [r3], #-1398	; 0x576
  1c:	2e73726f 	cdpcs	2, 7, cr7, cr3, cr15, {3}
  20:	682f0073 	stmdavs	pc!, {r0, r1, r4, r5, r6}	; <UNPREDICTABLE>
  24:	2f656d6f 	svccs	0x00656d6f
  28:	72617361 	rsbvc	r7, r1, #-2080374783	; 0x84000001
  2c:	6e697a61 	vnmulvs.f32	s15, s18, s3
  30:	6f442f31 	svcvs	0x00442f31
  34:	656d7563 	strbvs	r7, [sp, #-1379]!	; 0x563
  38:	2f73746e 	svccs	0x0073746e
  3c:	70736152 	rsbsvc	r6, r3, r2, asr r1
  40:	72726562 	rsbsvc	r6, r2, #411041792	; 0x18800000
  44:	736f2f79 	cmnvc	pc, #484	; 0x1e4
  48:	2d656970 	stclcs	9, cr6, [r5, #-448]!	; 0xfffffe40
  4c:	72617473 	rsbvc	r7, r1, #1929379840	; 0x73000000
  50:	4e470074 	mcrmi	0, 2, r0, cr7, cr4, {3}
  54:	53412055 	movtpl	r2, #4181	; 0x1055
  58:	322e3220 	eorcc	r3, lr, #2
  5c:	80010032 	andhi	r0, r1, r2, lsr r0
  60:	00000243 	andeq	r0, r0, r3, asr #4
  64:	00140002 	andseq	r0, r4, r2
  68:	01040000 	mrseq	r0, (UNDEF: 4)
  6c:	00000010 	andeq	r0, r0, r0, lsl r0
  70:	0000cc01 	andeq	ip, r0, r1, lsl #24
  74:	00005e00 	andeq	r5, r0, r0, lsl #28
  78:	0080d000 	addeq	sp, r0, r0
  7c:	00814400 	addeq	r4, r1, r0, lsl #8
  80:	00006500 	andeq	r6, r0, r0, lsl #10
  84:	00f10200 	rscseq	r0, r1, r0, lsl #4
  88:	07020000 	streq	r0, [r2, -r0]
  8c:	00000030 	andeq	r0, r0, r0, lsr r0
  90:	00360403 	eorseq	r0, r6, r3, lsl #8
  94:	01040000 	mrseq	r0, (UNDEF: 4)
  98:	00000042 	andeq	r0, r0, r2, asr #32
  9c:	00004205 	andeq	r4, r0, r5, lsl #4
  a0:	04060000 	streq	r0, [r6], #-0
  a4:	09020107 	stmdbeq	r2, {r0, r1, r2, r8}
  a8:	0000006b 	andeq	r0, r0, fp, rrx
  ac:	57454e08 	strbpl	r4, [r5, -r8, lsl #28]
  b0:	30090000 	andcc	r0, r9, r0
  b4:	01000000 	mrseq	r0, (UNDEF: 0)
  b8:	00008e09 	andeq	r8, r0, r9, lsl #28
  bc:	e1090200 	mrs	r0, R9_fiq
  c0:	03000000 	movweq	r0, #0
  c4:	00003c09 	andeq	r3, r0, r9, lsl #24
  c8:	02000400 	andeq	r0, r0, #0
  cc:	00000105 	andeq	r0, r0, r5, lsl #2
  d0:	00440902 	subeq	r0, r4, r2, lsl #18
  d4:	58020000 	stmdapl	r2, {}	; <UNPREDICTABLE>
  d8:	02000000 	andeq	r0, r0, #0
  dc:	0000810b 	andeq	r8, r0, fp, lsl #2
  e0:	00580a00 	subseq	r0, r8, r0, lsl #20
  e4:	02080000 	andeq	r0, r8, #0
  e8:	0000a80c 	andeq	sl, r0, ip, lsl #16
  ec:	70730b00 	rsbsvc	r0, r3, r0, lsl #22
  f0:	a80d0200 	stmdage	sp, {r9}
  f4:	02000000 	andeq	r0, r0, #0
  f8:	6c0b0023 	stcvs	0, cr0, [fp], {35}	; 0x23
  fc:	0e020072 	mcreq	0, 0, r0, cr2, cr2, {3}
 100:	000000a8 	andeq	r0, r0, r8, lsr #1
 104:	00042302 	andeq	r2, r4, r2, lsl #6
 108:	ae07040c 	cdpge	4, 0, cr0, cr7, cr12, {0}
 10c:	02000001 	andeq	r0, r0, #1
 110:	000000db 	ldrdeq	r0, [r0], -fp
 114:	00ba1102 	adcseq	r1, sl, r2, lsl #2
 118:	db0a0000 	blle	280120 <__bss_end+0x277840>
 11c:	1c000000 	stcne	0, cr0, [r0], {-0}
 120:	01291202 	teqeq	r9, r2, lsl #4
 124:	d50d0000 	strle	r0, [sp, #-0]
 128:	02000000 	andeq	r0, r0, #0
 12c:	00006b13 	andeq	r6, r0, r3, lsl fp
 130:	00230200 	eoreq	r0, r3, r0, lsl #4
 134:	0000ab0d 	andeq	sl, r0, sp, lsl #22
 138:	25140200 	ldrcs	r0, [r4, #-512]	; 0x200
 13c:	02000000 	andeq	r0, r0, #0
 140:	f80d0423 			; <UNDEFINED> instruction: 0xf80d0423
 144:	02000000 	andeq	r0, r0, #0
 148:	00004215 	andeq	r4, r0, r5, lsl r2
 14c:	08230200 	stmdaeq	r3!, {r9}
 150:	7874630b 	ldmdavc	r4!, {r0, r1, r3, r8, r9, sp, lr}^
 154:	29160200 	ldmdbcs	r6, {r9}
 158:	02000001 	andeq	r0, r0, #1
 15c:	4d0d0c23 	stcmi	12, cr0, [sp, #-140]	; 0xffffff74
 160:	02000000 	andeq	r0, r0, #0
 164:	0000a817 	andeq	sl, r0, r7, lsl r8
 168:	10230200 	eorne	r0, r3, r0, lsl #4
 16c:	00010b0d 	andeq	r0, r1, sp, lsl #22
 170:	2f180200 	svccs	0x00180200
 174:	02000001 	andeq	r0, r0, #1
 178:	270d1423 	strcs	r1, [sp, -r3, lsr #8]
 17c:	02000000 	andeq	r0, r0, #0
 180:	00012f19 	andeq	r2, r1, r9, lsl pc
 184:	18230200 	stmdane	r3!, {r9}
 188:	76040300 	strvc	r0, [r4], -r0, lsl #6
 18c:	03000000 	movweq	r0, #0
 190:	0000af04 	andeq	sl, r0, r4, lsl #30
 194:	00960200 	addseq	r0, r6, r0, lsl #4
 198:	1c020000 	stcne	0, cr0, [r2], {-0}
 19c:	00000140 	andeq	r0, r0, r0, asr #2
 1a0:	01460403 	cmpeq	r6, r3, lsl #8
 1a4:	2f0e0000 	svccs	0x000e0000
 1a8:	51000001 	tstpl	r0, r1
 1ac:	0f000001 	svceq	0x00000001
 1b0:	001c0200 	andseq	r0, ip, r0, lsl #4
 1b4:	20020000 	andcs	r0, r2, r0
 1b8:	0000015c 	andeq	r0, r0, ip, asr r1
 1bc:	00001c0a 	andeq	r1, r0, sl, lsl #24
 1c0:	21020800 	tstcs	r2, r0, lsl #16
 1c4:	00000185 	andeq	r0, r0, r5, lsl #3
 1c8:	0000c60d 	andeq	ip, r0, sp, lsl #12
 1cc:	2f220200 	svccs	0x00220200
 1d0:	02000001 	andeq	r0, r0, #1
 1d4:	060d0023 	streq	r0, [sp], -r3, lsr #32
 1d8:	02000000 	andeq	r0, r0, #0
 1dc:	00012f23 	andeq	r2, r1, r3, lsr #30
 1e0:	04230200 	strteq	r0, [r3], #-512	; 0x200
 1e4:	36011000 	strcc	r1, [r1], -r0
 1e8:	01000000 	mrseq	r0, (UNDEF: 0)
 1ec:	0080d002 	addeq	sp, r0, r2
 1f0:	0080ec00 	addeq	lr, r0, r0, lsl #24
 1f4:	00000000 	andeq	r0, r0, r0
 1f8:	01ad0100 			; <UNDEFINED> instruction: 0x01ad0100
 1fc:	0b110000 	bleq	440204 <__bss_end+0x437924>
 200:	01000000 	mrseq	r0, (UNDEF: 0)
 204:	0001ad04 	andeq	sl, r1, r4, lsl #26
 208:	7c910200 	lfmvc	f0, 4, [r1], {0}
 20c:	05041200 	streq	r1, [r4, #-512]	; 0x200
 210:	00746e69 	rsbseq	r6, r4, r9, ror #28
 214:	00470110 	subeq	r0, r7, r0, lsl r1
 218:	0a010000 	beq	40220 <__bss_end+0x37940>
 21c:	000080ec 	andeq	r8, r0, ip, ror #1
 220:	00008108 	andeq	r8, r0, r8, lsl #2
 224:	00000020 	andeq	r0, r0, r0, lsr #32
 228:	0001dc01 	andeq	sp, r1, r1, lsl #24
 22c:	00221100 	eoreq	r1, r2, r0, lsl #2
 230:	0c010000 	stceq	0, cr0, [r1], {-0}
 234:	000001ad 	andeq	r0, r0, sp, lsr #3
 238:	007c9102 	rsbseq	r9, ip, r2, lsl #2
 23c:	00000113 	andeq	r0, r0, r3, lsl r1
 240:	14010000 	strne	r0, [r1], #-0
 244:	0001ad01 	andeq	sl, r1, r1, lsl #26
 248:	00810800 	addeq	r0, r1, r0, lsl #16
 24c:	00814400 	addeq	r4, r1, r0, lsl #8
 250:	00004000 	andeq	r4, r0, r0
 254:	020a0100 	andeq	r0, sl, #0
 258:	01140000 	tsteq	r4, r0
 25c:	000000e9 	andeq	r0, r0, r9, ror #1
 260:	01ad1601 			; <UNDEFINED> instruction: 0x01ad1601
 264:	0f010000 	svceq	0x00010000
 268:	c9150000 	ldmdbgt	r5, {}	; <UNPREDICTABLE>
 26c:	02000001 	andeq	r0, r0, #1
 270:	00012f1e 	andeq	r2, r1, lr, lsl pc
 274:	03050100 	movweq	r0, #20736	; 0x5100
 278:	000088dc 	ldrdeq	r8, [r0], -ip
 27c:	0000b415 	andeq	fp, r0, r5, lsl r4
 280:	2e260200 	cdpcs	2, 2, cr0, cr6, cr0, {0}
 284:	01000002 	tsteq	r0, r2
 288:	88d80305 	ldmhi	r8, {r0, r2, r8, r9}^
 28c:	04030000 	streq	r0, [r3], #-0
 290:	00000151 	andeq	r0, r0, r1, asr r1
 294:	0000a115 	andeq	sl, r0, r5, lsl r1
 298:	35400200 	strbcc	r0, [r0, #-512]	; 0x200
 29c:	01000001 	tsteq	r0, r1
 2a0:	88d40305 	ldmhi	r4, {r0, r2, r8, r9}^
 2a4:	5e000000 	cdppl	0, 0, cr0, cr0, cr0, {0}
 2a8:	02000001 	andeq	r0, r0, #1
 2ac:	00012a00 	andeq	r2, r1, r0, lsl #20
 2b0:	10010400 	andne	r0, r1, r0, lsl #8
 2b4:	01000000 	mrseq	r0, (UNDEF: 0)
 2b8:	00000110 	andeq	r0, r0, r0, lsl r1
 2bc:	0000005e 	andeq	r0, r0, lr, asr r0
 2c0:	00008144 	andeq	r8, r0, r4, asr #2
 2c4:	0000827c 	andeq	r8, r0, ip, ror r2
 2c8:	000000c8 	andeq	r0, r0, r8, asr #1
 2cc:	006c6602 	rsbeq	r6, ip, r2, lsl #12
 2d0:	4d030108 	stfmis	f0, [r3, #-32]	; 0xffffffe0
 2d4:	03000000 	movweq	r0, #0
 2d8:	0000010b 	andeq	r0, r0, fp, lsl #2
 2dc:	004d0401 	subeq	r0, sp, r1, lsl #8
 2e0:	23020000 	movwcs	r0, #8192	; 0x2000
 2e4:	00530300 	subseq	r0, r3, r0, lsl #6
 2e8:	05010000 	streq	r0, [r1, #-0]
 2ec:	00000053 	andeq	r0, r0, r3, asr r0
 2f0:	00042302 	andeq	r2, r4, r2, lsl #6
 2f4:	00250404 	eoreq	r0, r5, r4, lsl #8
 2f8:	04050000 	streq	r0, [r5], #-0
 2fc:	0001ae07 	andeq	sl, r1, r7, lsl #28
 300:	42010600 	andmi	r0, r1, #0
 304:	01000001 	tsteq	r0, r1
 308:	009f010c 	addseq	r0, pc, ip, lsl #2
 30c:	81440000 	mrshi	r0, (UNDEF: 68)
 310:	81f80000 	mvnshi	r0, r0
 314:	00600000 	rsbeq	r0, r0, r0
 318:	9f010000 	svcls	0x00010000
 31c:	07000000 	streq	r0, [r0, -r0]
 320:	00000053 	andeq	r0, r0, r3, asr r0
 324:	00530c01 	subseq	r0, r3, r1, lsl #24
 328:	91020000 	mrsls	r0, (UNDEF: 2)
 32c:	00660874 	rsbeq	r0, r6, r4, ror r8
 330:	004d0e01 	subeq	r0, sp, r1, lsl #28
 334:	54010000 	strpl	r0, [r1], #-0
 338:	00011b09 	andeq	r1, r1, r9, lsl #22
 33c:	a10e0100 	mrsge	r0, (UNDEF: 30)
 340:	01000000 	mrseq	r0, (UNDEF: 0)
 344:	040a0055 	streq	r0, [sl], #-85	; 0x55
 348:	004d0404 	subeq	r0, sp, r4, lsl #8
 34c:	010b0000 	mrseq	r0, (UNDEF: 11)
 350:	00000129 	andeq	r0, r0, r9, lsr #2
 354:	f8012201 			; <UNDEFINED> instruction: 0xf8012201
 358:	40000081 	andmi	r0, r0, r1, lsl #1
 35c:	8c000082 	stchi	0, cr0, [r0], {130}	; 0x82
 360:	01000000 	mrseq	r0, (UNDEF: 0)
 364:	000000e9 	andeq	r0, r0, r9, ror #1
 368:	7274700c 	rsbsvc	r7, r4, #12
 36c:	9f220100 	svcls	0x00220100
 370:	02000000 	andeq	r0, r0, #0
 374:	53077491 	movwpl	r7, #29841	; 0x7491
 378:	01000000 	mrseq	r0, (UNDEF: 0)
 37c:	00005322 	andeq	r5, r0, r2, lsr #6
 380:	70910200 	addsvc	r0, r1, r0, lsl #4
 384:	01006608 	tsteq	r0, r8, lsl #12
 388:	00004d24 	andeq	r4, r0, r4, lsr #26
 38c:	00540100 	subseq	r0, r4, r0, lsl #2
 390:	0151010b 	cmpeq	r1, fp, lsl #2
 394:	2c010000 	stccs	0, cr0, [r1], {-0}
 398:	00824001 	addeq	r4, r2, r1
 39c:	00827c00 	addeq	r7, r2, r0, lsl #24
 3a0:	0000b800 	andeq	fp, r0, r0, lsl #16
 3a4:	01200100 	teqeq	r0, r0, lsl #2
 3a8:	37070000 	strcc	r0, [r7, -r0]
 3ac:	01000001 	tsteq	r0, r1
 3b0:	0001202c 	andeq	r2, r1, ip, lsr #32
 3b4:	7c910200 	lfmvc	f0, 4, [r1], {0}
 3b8:	00016a07 	andeq	r6, r1, r7, lsl #20
 3bc:	532c0100 	teqpl	ip, #0
 3c0:	02000000 	andeq	r0, r0, #0
 3c4:	04007891 	streq	r7, [r0], #-2193	; 0x891
 3c8:	00012604 	andeq	r2, r1, r4, lsl #12
 3cc:	08010500 	stmdaeq	r1, {r8, sl}
 3d0:	0000017d 	andeq	r0, r0, sp, ror r1
 3d4:	706f7408 	rsbvc	r7, pc, r8, lsl #8
 3d8:	20080100 	andcs	r0, r8, r0, lsl #2
 3dc:	05000001 	streq	r0, [r0, #-1]
 3e0:	0088cc03 	addeq	ip, r8, r3, lsl #24
 3e4:	015f0900 	cmpeq	pc, r0, lsl #18
 3e8:	09010000 	stmdbeq	r1, {}	; <UNPREDICTABLE>
 3ec:	00000120 	andeq	r0, r0, r0, lsr #2
 3f0:	88d00305 	ldmhi	r0, {r0, r2, r8, r9}^
 3f4:	200d0000 	andcs	r0, sp, r0
 3f8:	01000001 	tsteq	r0, r1
 3fc:	00004d06 	andeq	r4, r0, r6, lsl #26
 400:	03050100 	movweq	r0, #20736	; 0x5100
 404:	000088c8 	andeq	r8, r0, r8, asr #17
 408:	0000b800 	andeq	fp, r0, r0, lsl #16
 40c:	fa000200 	blx	c14 <_start-0x73ec>
 410:	04000001 	streq	r0, [r0], #-1
 414:	00001001 	andeq	r1, r0, r1
 418:	01820100 	orreq	r0, r2, r0, lsl #2
 41c:	005e0000 	subseq	r0, lr, r0
 420:	827c0000 	rsbshi	r0, ip, #0
 424:	83b80000 			; <UNDEFINED> instruction: 0x83b80000
 428:	01250000 	teqeq	r5, r0
 42c:	02020000 	andeq	r0, r2, #0
 430:	0001a807 	andeq	sl, r1, r7, lsl #16
 434:	07040200 	streq	r0, [r4, -r0, lsl #4]
 438:	000001ae 	andeq	r0, r0, lr, lsr #3
 43c:	74080102 	strvc	r0, [r8], #-258	; 0x102
 440:	03000001 	movweq	r0, #1
 444:	00018e01 	andeq	r8, r1, r1, lsl #28
 448:	7c1c0100 	ldfvcs	f0, [ip], {-0}
 44c:	c8000082 	stmdagt	r0, {r1, r7}
 450:	d8000082 	stmdale	r0, {r1, r7}
 454:	01000000 	mrseq	r0, (UNDEF: 0)
 458:	00000061 	andeq	r0, r0, r1, rrx
 45c:	00787204 	rsbseq	r7, r8, r4, lsl #4
 460:	002c1e01 	eoreq	r1, ip, r1, lsl #28
 464:	91020000 	mrsls	r0, (UNDEF: 2)
 468:	01050074 	tsteq	r5, r4, ror r0
 46c:	000001bb 			; <UNDEFINED> instruction: 0x000001bb
 470:	82c82b01 	sbchi	r2, r8, #1024	; 0x400
 474:	82e00000 	rschi	r0, r0, #0
 478:	01040000 	mrseq	r0, (UNDEF: 4)
 47c:	05010000 	streq	r0, [r1, #-0]
 480:	00018701 	andeq	r8, r1, r1, lsl #14
 484:	e0310100 	eors	r0, r1, r0, lsl #2
 488:	f8000082 			; <UNDEFINED> instruction: 0xf8000082
 48c:	24000082 	strcs	r0, [r0], #-130	; 0x82
 490:	01000001 	tsteq	r0, r1
 494:	00e90106 	rsceq	r0, r9, r6, lsl #2
 498:	3a010000 	bcc	404a0 <__bss_end+0x37bc0>
 49c:	000082f8 	strdeq	r8, [r0], -r8	; <UNPREDICTABLE>
 4a0:	000083b8 			; <UNDEFINED> instruction: 0x000083b8
 4a4:	00000144 	andeq	r0, r0, r4, asr #2
 4a8:	61720401 	cmnvs	r2, r1, lsl #8
 4ac:	2c3c0100 	ldfcss	f0, [ip], #-0
 4b0:	02000000 	andeq	r0, r0, #0
 4b4:	72047491 	andvc	r7, r4, #-1862270976	; 0x91000000
 4b8:	3d010078 	stccc	0, cr0, [r1, #-480]	; 0xfffffe20
 4bc:	0000002c 	andeq	r0, r0, ip, lsr #32
 4c0:	00709102 	rsbseq	r9, r0, r2, lsl #2
 4c4:	00038c00 	andeq	r8, r3, r0, lsl #24
 4c8:	6c000200 	sfmvs	f0, 4, [r0], {-0}
 4cc:	04000002 	streq	r0, [r0], #-2
 4d0:	00001001 	andeq	r1, r0, r1
 4d4:	01d90100 	bicseq	r0, r9, r0, lsl #2
 4d8:	005e0000 	subseq	r0, lr, r0
 4dc:	83b80000 			; <UNDEFINED> instruction: 0x83b80000
 4e0:	88c80000 	stmiahi	r8, {}^	; <UNPREDICTABLE>
 4e4:	01740000 	cmneq	r4, r0
 4e8:	f1020000 	cps	#0
 4ec:	02000000 	andeq	r0, r0, #0
 4f0:	00003007 	andeq	r3, r0, r7
 4f4:	36040300 	strcc	r0, [r4], -r0, lsl #6
 4f8:	04000000 	streq	r0, [r0], #-0
 4fc:	00004201 	andeq	r4, r0, r1, lsl #4
 500:	00420500 	subeq	r0, r2, r0, lsl #10
 504:	06000000 	streq	r0, [r0], -r0
 508:	02010704 	andeq	r0, r1, #1048576	; 0x100000
 50c:	00006b09 	andeq	r6, r0, r9, lsl #22
 510:	454e0800 	strbmi	r0, [lr, #-2048]	; 0x800
 514:	09000057 	stmdbeq	r0, {r0, r1, r2, r4, r6}
 518:	00000030 	andeq	r0, r0, r0, lsr r0
 51c:	008e0901 	addeq	r0, lr, r1, lsl #18
 520:	09020000 	stmdbeq	r2, {}	; <UNPREDICTABLE>
 524:	000000e1 	andeq	r0, r0, r1, ror #1
 528:	003c0903 	eorseq	r0, ip, r3, lsl #18
 52c:	00040000 	andeq	r0, r4, r0
 530:	00010502 	andeq	r0, r1, r2, lsl #10
 534:	44090200 	strmi	r0, [r9], #-512	; 0x200
 538:	02000000 	andeq	r0, r0, #0
 53c:	00000058 	andeq	r0, r0, r8, asr r0
 540:	00810b02 	addeq	r0, r1, r2, lsl #22
 544:	580a0000 	stmdapl	sl, {}	; <UNPREDICTABLE>
 548:	08000000 	stmdaeq	r0, {}	; <UNPREDICTABLE>
 54c:	00a80c02 	adceq	r0, r8, r2, lsl #24
 550:	730b0000 	movwvc	r0, #45056	; 0xb000
 554:	0d020070 	stceq	0, cr0, [r2, #-448]	; 0xfffffe40
 558:	000000a8 	andeq	r0, r0, r8, lsr #1
 55c:	0b002302 	bleq	916c <__bss_end+0x88c>
 560:	0200726c 	andeq	r7, r0, #-1073741818	; 0xc0000006
 564:	0000a80e 	andeq	sl, r0, lr, lsl #16
 568:	04230200 	strteq	r0, [r3], #-512	; 0x200
 56c:	07040c00 	streq	r0, [r4, -r0, lsl #24]
 570:	000001ae 	andeq	r0, r0, lr, lsr #3
 574:	0000db02 	andeq	sp, r0, r2, lsl #22
 578:	ba110200 	blt	440d80 <__bss_end+0x4384a0>
 57c:	0a000000 	beq	584 <_start-0x7a7c>
 580:	000000db 	ldrdeq	r0, [r0], -fp
 584:	2912021c 	ldmdbcs	r2, {r2, r3, r4, r9}
 588:	0d000001 	stceq	0, cr0, [r0, #-4]
 58c:	000000d5 	ldrdeq	r0, [r0], -r5
 590:	006b1302 	rsbeq	r1, fp, r2, lsl #6
 594:	23020000 	movwcs	r0, #8192	; 0x2000
 598:	00ab0d00 	adceq	r0, fp, r0, lsl #26
 59c:	14020000 	strne	r0, [r2], #-0
 5a0:	00000025 	andeq	r0, r0, r5, lsr #32
 5a4:	0d042302 	stceq	3, cr2, [r4, #-8]
 5a8:	000000f8 	strdeq	r0, [r0], -r8
 5ac:	00421502 	subeq	r1, r2, r2, lsl #10
 5b0:	23020000 	movwcs	r0, #8192	; 0x2000
 5b4:	74630b08 	strbtvc	r0, [r3], #-2824	; 0xb08
 5b8:	16020078 			; <UNDEFINED> instruction: 0x16020078
 5bc:	00000129 	andeq	r0, r0, r9, lsr #2
 5c0:	0d0c2302 	stceq	3, cr2, [ip, #-8]
 5c4:	0000004d 	andeq	r0, r0, sp, asr #32
 5c8:	00a81702 	adceq	r1, r8, r2, lsl #14
 5cc:	23020000 	movwcs	r0, #8192	; 0x2000
 5d0:	010b0d10 	tsteq	fp, r0, lsl sp
 5d4:	18020000 	stmdane	r2, {}	; <UNPREDICTABLE>
 5d8:	0000012f 	andeq	r0, r0, pc, lsr #2
 5dc:	0d142302 	ldceq	3, cr2, [r4, #-8]
 5e0:	00000027 	andeq	r0, r0, r7, lsr #32
 5e4:	012f1902 	teqeq	pc, r2, lsl #18
 5e8:	23020000 	movwcs	r0, #8192	; 0x2000
 5ec:	04030018 	streq	r0, [r3], #-24
 5f0:	00000076 	andeq	r0, r0, r6, ror r0
 5f4:	00af0403 	adceq	r0, pc, r3, lsl #8
 5f8:	96020000 	strls	r0, [r2], -r0
 5fc:	02000000 	andeq	r0, r0, #0
 600:	0001401c 	andeq	r4, r1, ip, lsl r0
 604:	46040300 	strmi	r0, [r4], -r0, lsl #6
 608:	0e000001 	cdpeq	0, 0, cr0, cr0, cr1, {0}
 60c:	0000012f 	andeq	r0, r0, pc, lsr #2
 610:	00000151 	andeq	r0, r0, r1, asr r1
 614:	1c02000f 	stcne	0, cr0, [r2], {15}
 618:	02000000 	andeq	r0, r0, #0
 61c:	00015c20 	andeq	r5, r1, r0, lsr #24
 620:	001c0a00 	andseq	r0, ip, r0, lsl #20
 624:	02080000 	andeq	r0, r8, #0
 628:	00018521 	andeq	r8, r1, r1, lsr #10
 62c:	00c60d00 	sbceq	r0, r6, r0, lsl #26
 630:	22020000 	andcs	r0, r2, #0
 634:	0000012f 	andeq	r0, r0, pc, lsr #2
 638:	0d002302 	stceq	3, cr2, [r0, #-8]
 63c:	00000006 	andeq	r0, r0, r6
 640:	012f2302 	teqeq	pc, r2, lsl #6
 644:	23020000 	movwcs	r0, #8192	; 0x2000
 648:	01100004 	tsteq	r0, r4
 64c:	000001fe 	strdeq	r0, [r0], -lr
 650:	b8010601 	stmdalt	r1, {r0, r9, sl}
 654:	04000083 	streq	r0, [r0], #-131	; 0x83
 658:	70000084 	andvc	r0, r0, r4, lsl #1
 65c:	01000001 	tsteq	r0, r1
 660:	000001bc 			; <UNDEFINED> instruction: 0x000001bc
 664:	78746311 	ldmdavc	r4!, {r0, r4, r8, r9, sp, lr}^
 668:	bc060100 	stflts	f0, [r6], {-0}
 66c:	02000001 	andeq	r0, r0, #1
 670:	4d127491 	cfldrsmi	mvf7, [r2, #-580]	; 0xfffffdbc
 674:	01000000 	mrseq	r0, (UNDEF: 0)
 678:	0000a806 	andeq	sl, r0, r6, lsl #16
 67c:	70910200 	addsvc	r0, r1, r0, lsl #4
 680:	81040300 	mrshi	r0, LR_abt
 684:	13000000 	movwne	r0, #0
 688:	00023b01 	andeq	r3, r2, r1, lsl #22
 68c:	040c0100 	streq	r0, [ip], #-256	; 0x100
 690:	30000084 	andcc	r0, r0, r4, lsl #1
 694:	02000084 	andeq	r0, r0, #132	; 0x84
 698:	1001007d 	andne	r0, r1, sp, ror r0
 69c:	00026201 	andeq	r6, r2, r1, lsl #4
 6a0:	01110100 	tsteq	r1, r0, lsl #2
 6a4:	00008430 	andeq	r8, r0, r0, lsr r4
 6a8:	000084a4 	andeq	r8, r0, r4, lsr #9
 6ac:	0000019c 	muleq	r0, ip, r1
 6b0:	00023501 	andeq	r3, r2, r1, lsl #10
 6b4:	02581200 	subseq	r1, r8, #0
 6b8:	11010000 	mrsne	r0, (UNDEF: 1)
 6bc:	0000012f 	andeq	r0, r0, pc, lsr #2
 6c0:	116c9102 	cmnne	ip, r2, lsl #2
 6c4:	11010066 	tstne	r1, r6, rrx
 6c8:	00000025 	andeq	r0, r0, r5, lsr #32
 6cc:	12689102 	rsbne	r9, r8, #-2147483648	; 0x80000000
 6d0:	0000025d 	andeq	r0, r0, sp, asr r2
 6d4:	00421101 	subeq	r1, r2, r1, lsl #2
 6d8:	91020000 	mrsls	r0, (UNDEF: 2)
 6dc:	02311264 	eorseq	r1, r1, #1073741830	; 0x40000006
 6e0:	11010000 	mrsne	r0, (UNDEF: 1)
 6e4:	000000a8 	andeq	r0, r0, r8, lsr #1
 6e8:	14609102 	strbtne	r9, [r0], #-258	; 0x102
 6ec:	00787463 	rsbseq	r7, r8, r3, ror #8
 6f0:	01291701 	teqeq	r9, r1, lsl #14
 6f4:	91020000 	mrsls	r0, (UNDEF: 2)
 6f8:	01100074 	tsteq	r0, r4, ror r0
 6fc:	0000026b 	andeq	r0, r0, fp, ror #4
 700:	a4011e01 	strge	r1, [r1], #-3585	; 0xe01
 704:	d0000084 	andle	r0, r0, r4, lsl #1
 708:	c8000085 	stmdagt	r0, {r0, r2, r7}
 70c:	01000001 	tsteq	r0, r1
 710:	00000286 	andeq	r0, r0, r6, lsl #5
 714:	01006611 	tsteq	r0, r1, lsl r6
 718:	0000251e 	andeq	r2, r0, lr, lsl r5
 71c:	6c910200 	lfmvs	f0, 4, [r1], {0}
 720:	00025d12 	andeq	r5, r2, r2, lsl sp
 724:	421e0100 	andsmi	r0, lr, #0
 728:	02000000 	andeq	r0, r0, #0
 72c:	4d126891 	ldcmi	8, cr6, [r2, #-580]	; 0xfffffdbc
 730:	01000000 	mrseq	r0, (UNDEF: 0)
 734:	0000a81e 	andeq	sl, r0, lr, lsl r8
 738:	64910200 	ldrvs	r0, [r1], #512	; 0x200
 73c:	62637014 	rsbvs	r7, r3, #20
 740:	2f210100 	svccs	0x00210100
 744:	02000001 	andeq	r0, r0, #1
 748:	15007491 	strne	r7, [r0, #-1169]	; 0x491
 74c:	0001c301 	andeq	ip, r1, r1, lsl #6
 750:	d0360100 	eorsle	r0, r6, r0, lsl #2
 754:	20000085 	andcs	r0, r0, r5, lsl #1
 758:	f4000086 	vst4.32	{d0-d3}, [r0], r6
 75c:	01000001 	tsteq	r0, r1
 760:	01f80116 	mvnseq	r0, r6, lsl r1
 764:	3e010000 	cdpcc	0, 0, cr0, cr1, cr0, {0}
 768:	00008620 	andeq	r8, r0, r0, lsr #12
 76c:	00008708 	andeq	r8, r0, r8, lsl #14
 770:	00000214 	andeq	r0, r0, r4, lsl r2
 774:	0002cd01 	andeq	ip, r2, r1, lsl #26
 778:	863c1700 	ldrthi	r1, [ip], -r0, lsl #14
 77c:	86e80000 	strbthi	r0, [r8], r0
 780:	ec180000 	ldc	0, cr0, [r8], {-0}
 784:	01000001 	tsteq	r0, r1
 788:	00012f43 	andeq	r2, r1, r3, asr #30
 78c:	74910200 	ldrvc	r0, [r1], #512	; 0x200
 790:	01190000 	tsteq	r9, r0
 794:	00000227 	andeq	r0, r0, r7, lsr #4
 798:	012f5001 	teqeq	pc, r1
 79c:	87080000 	strhi	r0, [r8, -r0]
 7a0:	87280000 	strhi	r0, [r8, -r0]!
 7a4:	02400000 	subeq	r0, r0, #0
 7a8:	1a010000 	bne	407b0 <__bss_end+0x37ed0>
 7ac:	00024601 	andeq	r4, r2, r1, lsl #12
 7b0:	2f540100 	svccs	0x00540100
 7b4:	28000001 	stmdacs	r0, {r0}
 7b8:	40000087 	andmi	r0, r0, r7, lsl #1
 7bc:	02000087 	andeq	r0, r0, #135	; 0x87
 7c0:	1a01007d 	bne	409bc <__bss_end+0x380dc>
 7c4:	00027a01 	andeq	r7, r2, r1, lsl #20
 7c8:	2f580100 	svccs	0x00580100
 7cc:	40000001 	andmi	r0, r0, r1
 7d0:	4c000087 	stcmi	0, cr0, [r0], {135}	; 0x87
 7d4:	02000087 	andeq	r0, r0, #135	; 0x87
 7d8:	1501007d 	strne	r0, [r1, #-125]	; 0x7d
 7dc:	00021b01 	andeq	r1, r2, r1, lsl #22
 7e0:	4c5d0100 	ldfmie	f0, [sp], {-0}
 7e4:	88000087 	stmdahi	r0, {r0, r1, r2, r7}
 7e8:	60000087 	andvs	r0, r0, r7, lsl #1
 7ec:	01000002 	tsteq	r0, r2
 7f0:	0207011b 	andeq	r0, r7, #-1073741818	; 0xc0000006
 7f4:	63010000 	movwvs	r0, #4096	; 0x1000
 7f8:	00008788 	andeq	r8, r0, r8, lsl #15
 7fc:	00008850 	andeq	r8, r0, r0, asr r8
 800:	01007d02 	tsteq	r0, r2, lsl #26
 804:	01e1011b 	mvneq	r0, fp, lsl r1
 808:	83010000 	movwhi	r0, #4096	; 0x1000
 80c:	00008850 	andeq	r8, r0, r0, asr r8
 810:	000088c8 	andeq	r8, r0, r8, asr #17
 814:	01007d02 	tsteq	r0, r2, lsl #26
 818:	0001c91c 	andeq	ip, r1, ip, lsl r9
 81c:	2f1e0200 	svccs	0x001e0200
 820:	01000001 	tsteq	r0, r1
 824:	88dc0305 	ldmhi	ip, {r0, r2, r8, r9}^
 828:	b41c0000 	ldrlt	r0, [ip], #-0
 82c:	02000000 	andeq	r0, r0, #0
 830:	00037726 	andeq	r7, r3, r6, lsr #14
 834:	03050100 	movweq	r0, #20736	; 0x5100
 838:	000088d8 	ldrdeq	r8, [r0], -r8	; <UNPREDICTABLE>
 83c:	01510403 	cmpeq	r1, r3, lsl #8
 840:	a11c0000 	tstge	ip, r0
 844:	02000000 	andeq	r0, r0, #0
 848:	00013540 	andeq	r3, r1, r0, asr #10
 84c:	03050100 	movweq	r0, #20736	; 0x5100
 850:	000088d4 	ldrdeq	r8, [r0], -r4
	...

Disassembly of section .debug_abbrev:

00000000 <.debug_abbrev>:
   0:	10001101 	andne	r1, r0, r1, lsl #2
   4:	12011106 	andne	r1, r1, #-2147483647	; 0x80000001
   8:	1b080301 	blne	200c14 <__bss_end+0x1f8334>
   c:	13082508 	movwne	r2, #34056	; 0x8508
  10:	00000005 	andeq	r0, r0, r5
  14:	25011101 	strcs	r1, [r1, #-257]	; 0x101
  18:	030b130e 	movweq	r1, #45838	; 0xb30e
  1c:	110e1b0e 	tstne	lr, lr, lsl #22
  20:	10011201 	andne	r1, r1, r1, lsl #4
  24:	02000006 	andeq	r0, r0, #6
  28:	0e030016 	mcreq	0, 0, r0, cr3, cr6, {0}
  2c:	0b3b0b3a 	bleq	ec2d1c <__bss_end+0xeba43c>
  30:	00001349 	andeq	r1, r0, r9, asr #6
  34:	0b000f03 	bleq	3c48 <_start-0x43b8>
  38:	0013490b 	andseq	r4, r3, fp, lsl #18
  3c:	01150400 	tsteq	r5, r0, lsl #8
  40:	13010c27 	movwne	r0, #7207	; 0x1c27
  44:	05050000 	streq	r0, [r5, #-0]
  48:	00134900 	andseq	r4, r3, r0, lsl #18
  4c:	000f0600 	andeq	r0, pc, r0, lsl #12
  50:	00000b0b 	andeq	r0, r0, fp, lsl #22
  54:	0b010407 	bleq	41078 <__bss_end+0x38798>
  58:	3b0b3a0b 	blcc	2ce88c <__bss_end+0x2c5fac>
  5c:	0013010b 	andseq	r0, r3, fp, lsl #2
  60:	00280800 	eoreq	r0, r8, r0, lsl #16
  64:	0d1c0803 	ldceq	8, cr0, [ip, #-12]
  68:	28090000 	stmdacs	r9, {}	; <UNPREDICTABLE>
  6c:	1c0e0300 	stcne	3, cr0, [lr], {-0}
  70:	0a00000d 	beq	ac <_start-0x7f54>
  74:	0e030113 	mcreq	1, 0, r0, cr3, cr3, {0}
  78:	0b3a0b0b 	bleq	e82cac <__bss_end+0xe7a3cc>
  7c:	13010b3b 	movwne	r0, #6971	; 0x1b3b
  80:	0d0b0000 	stceq	0, cr0, [fp, #-0]
  84:	3a080300 	bcc	200c8c <__bss_end+0x1f83ac>
  88:	490b3b0b 	stmdbmi	fp, {r0, r1, r3, r8, r9, fp, ip, sp}
  8c:	000a3813 	andeq	r3, sl, r3, lsl r8
  90:	00240c00 	eoreq	r0, r4, r0, lsl #24
  94:	0b3e0b0b 	bleq	f82cc8 <__bss_end+0xf7a3e8>
  98:	00000e03 	andeq	r0, r0, r3, lsl #28
  9c:	03000d0d 	movweq	r0, #3341	; 0xd0d
  a0:	3b0b3a0e 	blcc	2ce8e0 <__bss_end+0x2c6000>
  a4:	3813490b 	ldmdacc	r3, {r0, r1, r3, r8, fp, lr}
  a8:	0e00000a 	cdpeq	0, 0, cr0, cr0, cr10, {0}
  ac:	13490115 	movtne	r0, #37141	; 0x9115
  b0:	00001301 	andeq	r1, r0, r1, lsl #6
  b4:	0000180f 	andeq	r1, r0, pc, lsl #16
  b8:	012e1000 	teqeq	lr, r0
  bc:	0e030c3f 	mcreq	12, 0, r0, cr3, cr15, {1}
  c0:	0b3b0b3a 	bleq	ec2db0 <__bss_end+0xeba4d0>
  c4:	01120111 	tsteq	r2, r1, lsl r1
  c8:	42970640 	addsmi	r0, r7, #67108864	; 0x4000000
  cc:	0013010c 	andseq	r0, r3, ip, lsl #2
  d0:	00341100 	eorseq	r1, r4, r0, lsl #2
  d4:	0b3a0e03 	bleq	e838e8 <__bss_end+0xe7b008>
  d8:	13490b3b 	movtne	r0, #39739	; 0x9b3b
  dc:	00000a02 	andeq	r0, r0, r2, lsl #20
  e0:	0b002412 	bleq	9130 <__bss_end+0x850>
  e4:	030b3e0b 	movweq	r3, #48651	; 0xbe0b
  e8:	13000008 	movwne	r0, #8
  ec:	0c3f012e 	ldfeqs	f0, [pc], #-184	; 3c <_start-0x7fc4>
  f0:	0b3a0e03 	bleq	e83904 <__bss_end+0xe7b024>
  f4:	0c270b3b 	stceq	11, cr0, [r7], #-236	; 0xffffff14
  f8:	01111349 	tsteq	r1, r9, asr #6
  fc:	06400112 			; <UNDEFINED> instruction: 0x06400112
 100:	010c4296 			; <UNDEFINED> instruction: 0x010c4296
 104:	14000013 	strne	r0, [r0], #-19
 108:	0c3f012e 	ldfeqs	f0, [pc], #-184	; 58 <_start-0x7fa8>
 10c:	0b3a0e03 	bleq	e83920 <__bss_end+0xe7b040>
 110:	13490b3b 	movtne	r0, #39739	; 0x9b3b
 114:	00000c3c 	andeq	r0, r0, ip, lsr ip
 118:	03003415 	movweq	r3, #1045	; 0x415
 11c:	3b0b3a0e 	blcc	2ce95c <__bss_end+0x2c607c>
 120:	3f13490b 	svccc	0x0013490b
 124:	000a020c 	andeq	r0, sl, ip, lsl #4
 128:	11010000 	mrsne	r0, (UNDEF: 1)
 12c:	130e2501 	movwne	r2, #58625	; 0xe501
 130:	1b0e030b 	blne	380d64 <__bss_end+0x378484>
 134:	1201110e 	andne	r1, r1, #-2147483645	; 0x80000003
 138:	00061001 	andeq	r1, r6, r1
 13c:	01130200 	tsteq	r3, r0, lsl #4
 140:	0b0b0803 	bleq	2c2154 <__bss_end+0x2b9874>
 144:	0b3b0b3a 	bleq	ec2e34 <__bss_end+0xeba554>
 148:	00001301 	andeq	r1, r0, r1, lsl #6
 14c:	03000d03 	movweq	r0, #3331	; 0xd03
 150:	3b0b3a0e 	blcc	2ce990 <__bss_end+0x2c60b0>
 154:	3813490b 	ldmdacc	r3, {r0, r1, r3, r8, fp, lr}
 158:	0400000a 	streq	r0, [r0], #-10
 15c:	0b0b000f 	bleq	2c01a0 <__bss_end+0x2b78c0>
 160:	00001349 	andeq	r1, r0, r9, asr #6
 164:	0b002405 	bleq	9180 <__bss_end+0x8a0>
 168:	030b3e0b 	movweq	r3, #48651	; 0xbe0b
 16c:	0600000e 	streq	r0, [r0], -lr
 170:	0c3f012e 	ldfeqs	f0, [pc], #-184	; c0 <_start-0x7f40>
 174:	0b3a0e03 	bleq	e83988 <__bss_end+0xe7b0a8>
 178:	0c270b3b 	stceq	11, cr0, [r7], #-236	; 0xffffff14
 17c:	01111349 	tsteq	r1, r9, asr #6
 180:	06400112 			; <UNDEFINED> instruction: 0x06400112
 184:	010c4297 			; <UNDEFINED> instruction: 0x010c4297
 188:	07000013 	smladeq	r0, r3, r0, r0
 18c:	0e030005 	cdpeq	0, 0, cr0, cr3, cr5, {0}
 190:	0b3b0b3a 	bleq	ec2e80 <__bss_end+0xeba5a0>
 194:	0a021349 	beq	84ec0 <__bss_end+0x7c5e0>
 198:	34080000 	strcc	r0, [r8], #-0
 19c:	3a080300 	bcc	200da4 <__bss_end+0x1f84c4>
 1a0:	490b3b0b 	stmdbmi	fp, {r0, r1, r3, r8, r9, fp, ip, sp}
 1a4:	000a0213 	andeq	r0, sl, r3, lsl r2
 1a8:	00340900 	eorseq	r0, r4, r0, lsl #18
 1ac:	0b3a0e03 	bleq	e839c0 <__bss_end+0xe7b0e0>
 1b0:	13490b3b 	movtne	r0, #39739	; 0x9b3b
 1b4:	00000a02 	andeq	r0, r0, r2, lsl #20
 1b8:	0b000f0a 	bleq	3de8 <_start-0x4218>
 1bc:	0b00000b 	bleq	1f0 <_start-0x7e10>
 1c0:	0c3f012e 	ldfeqs	f0, [pc], #-184	; 110 <_start-0x7ef0>
 1c4:	0b3a0e03 	bleq	e839d8 <__bss_end+0xe7b0f8>
 1c8:	0c270b3b 	stceq	11, cr0, [r7], #-236	; 0xffffff14
 1cc:	01120111 	tsteq	r2, r1, lsl r1
 1d0:	42970640 	addsmi	r0, r7, #67108864	; 0x4000000
 1d4:	0013010c 	andseq	r0, r3, ip, lsl #2
 1d8:	00050c00 	andeq	r0, r5, r0, lsl #24
 1dc:	0b3a0803 	bleq	e821f0 <__bss_end+0xe79910>
 1e0:	13490b3b 	movtne	r0, #39739	; 0x9b3b
 1e4:	00000a02 	andeq	r0, r0, r2, lsl #20
 1e8:	0300340d 	movweq	r3, #1037	; 0x40d
 1ec:	3b0b3a0e 	blcc	2cea2c <__bss_end+0x2c614c>
 1f0:	3f13490b 	svccc	0x0013490b
 1f4:	000a020c 	andeq	r0, sl, ip, lsl #4
 1f8:	11010000 	mrsne	r0, (UNDEF: 1)
 1fc:	130e2501 	movwne	r2, #58625	; 0xe501
 200:	1b0e030b 	blne	380e34 <__bss_end+0x378554>
 204:	1201110e 	andne	r1, r1, #-2147483645	; 0x80000003
 208:	00061001 	andeq	r1, r6, r1
 20c:	00240200 	eoreq	r0, r4, r0, lsl #4
 210:	0b3e0b0b 	bleq	f82e44 <__bss_end+0xf7a564>
 214:	00000e03 	andeq	r0, r0, r3, lsl #28
 218:	3f012e03 	svccc	0x00012e03
 21c:	3a0e030c 	bcc	380e54 <__bss_end+0x378574>
 220:	110b3b0b 	tstne	fp, fp, lsl #22
 224:	40011201 	andmi	r1, r1, r1, lsl #4
 228:	0c429606 	mcrreq	6, 0, r9, r2, cr6
 22c:	00001301 	andeq	r1, r0, r1, lsl #6
 230:	03003404 	movweq	r3, #1028	; 0x404
 234:	3b0b3a08 	blcc	2cea5c <__bss_end+0x2c617c>
 238:	0213490b 	andseq	r4, r3, #180224	; 0x2c000
 23c:	0500000a 	streq	r0, [r0, #-10]
 240:	0c3f002e 	ldceq	0, cr0, [pc], #-184	; 190 <_start-0x7e70>
 244:	0b3a0e03 	bleq	e83a58 <__bss_end+0xe7b178>
 248:	01110b3b 	tsteq	r1, fp, lsr fp
 24c:	06400112 			; <UNDEFINED> instruction: 0x06400112
 250:	000c4296 	muleq	ip, r6, r2
 254:	012e0600 	teqeq	lr, r0, lsl #12
 258:	0e030c3f 	mcreq	12, 0, r0, cr3, cr15, {1}
 25c:	0b3b0b3a 	bleq	ec2f4c <__bss_end+0xeba66c>
 260:	01120111 	tsteq	r2, r1, lsl r1
 264:	42960640 	addsmi	r0, r6, #67108864	; 0x4000000
 268:	0000000c 	andeq	r0, r0, ip
 26c:	25011101 	strcs	r1, [r1, #-257]	; 0x101
 270:	030b130e 	movweq	r1, #45838	; 0xb30e
 274:	110e1b0e 	tstne	lr, lr, lsl #22
 278:	10011201 	andne	r1, r1, r1, lsl #4
 27c:	02000006 	andeq	r0, r0, #6
 280:	0e030016 	mcreq	0, 0, r0, cr3, cr6, {0}
 284:	0b3b0b3a 	bleq	ec2f74 <__bss_end+0xeba694>
 288:	00001349 	andeq	r1, r0, r9, asr #6
 28c:	0b000f03 	bleq	3ea0 <_start-0x4160>
 290:	0013490b 	andseq	r4, r3, fp, lsl #18
 294:	01150400 	tsteq	r5, r0, lsl #8
 298:	13010c27 	movwne	r0, #7207	; 0x1c27
 29c:	05050000 	streq	r0, [r5, #-0]
 2a0:	00134900 	andseq	r4, r3, r0, lsl #18
 2a4:	000f0600 	andeq	r0, pc, r0, lsl #12
 2a8:	00000b0b 	andeq	r0, r0, fp, lsl #22
 2ac:	0b010407 	bleq	412d0 <__bss_end+0x389f0>
 2b0:	3b0b3a0b 	blcc	2ceae4 <__bss_end+0x2c6204>
 2b4:	0013010b 	andseq	r0, r3, fp, lsl #2
 2b8:	00280800 	eoreq	r0, r8, r0, lsl #16
 2bc:	0d1c0803 	ldceq	8, cr0, [ip, #-12]
 2c0:	28090000 	stmdacs	r9, {}	; <UNPREDICTABLE>
 2c4:	1c0e0300 	stcne	3, cr0, [lr], {-0}
 2c8:	0a00000d 	beq	304 <_start-0x7cfc>
 2cc:	0e030113 	mcreq	1, 0, r0, cr3, cr3, {0}
 2d0:	0b3a0b0b 	bleq	e82f04 <__bss_end+0xe7a624>
 2d4:	13010b3b 	movwne	r0, #6971	; 0x1b3b
 2d8:	0d0b0000 	stceq	0, cr0, [fp, #-0]
 2dc:	3a080300 	bcc	200ee4 <__bss_end+0x1f8604>
 2e0:	490b3b0b 	stmdbmi	fp, {r0, r1, r3, r8, r9, fp, ip, sp}
 2e4:	000a3813 	andeq	r3, sl, r3, lsl r8
 2e8:	00240c00 	eoreq	r0, r4, r0, lsl #24
 2ec:	0b3e0b0b 	bleq	f82f20 <__bss_end+0xf7a640>
 2f0:	00000e03 	andeq	r0, r0, r3, lsl #28
 2f4:	03000d0d 	movweq	r0, #3341	; 0xd0d
 2f8:	3b0b3a0e 	blcc	2ceb38 <__bss_end+0x2c6258>
 2fc:	3813490b 	ldmdacc	r3, {r0, r1, r3, r8, fp, lr}
 300:	0e00000a 	cdpeq	0, 0, cr0, cr0, cr10, {0}
 304:	13490115 	movtne	r0, #37141	; 0x9115
 308:	00001301 	andeq	r1, r0, r1, lsl #6
 30c:	0000180f 	andeq	r1, r0, pc, lsl #16
 310:	012e1000 	teqeq	lr, r0
 314:	0e030c3f 	mcreq	12, 0, r0, cr3, cr15, {1}
 318:	0b3b0b3a 	bleq	ec3008 <__bss_end+0xeba728>
 31c:	01110c27 	tsteq	r1, r7, lsr #24
 320:	06400112 			; <UNDEFINED> instruction: 0x06400112
 324:	010c4296 			; <UNDEFINED> instruction: 0x010c4296
 328:	11000013 	tstne	r0, r3, lsl r0
 32c:	08030005 	stmdaeq	r3, {r0, r2}
 330:	0b3b0b3a 	bleq	ec3020 <__bss_end+0xeba740>
 334:	0a021349 	beq	85060 <__bss_end+0x7c780>
 338:	05120000 	ldreq	r0, [r2, #-0]
 33c:	3a0e0300 	bcc	380f44 <__bss_end+0x378664>
 340:	490b3b0b 	stmdbmi	fp, {r0, r1, r3, r8, r9, fp, ip, sp}
 344:	000a0213 	andeq	r0, sl, r3, lsl r2
 348:	002e1300 	eoreq	r1, lr, r0, lsl #6
 34c:	0e030c3f 	mcreq	12, 0, r0, cr3, cr15, {1}
 350:	0b3b0b3a 	bleq	ec3040 <__bss_end+0xeba760>
 354:	01120111 	tsteq	r2, r1, lsl r1
 358:	42970a40 	addsmi	r0, r7, #262144	; 0x40000
 35c:	1400000c 	strne	r0, [r0], #-12
 360:	08030034 	stmdaeq	r3, {r2, r4, r5}
 364:	0b3b0b3a 	bleq	ec3054 <__bss_end+0xeba774>
 368:	0a021349 	beq	85094 <__bss_end+0x7c7b4>
 36c:	2e150000 	cdpcs	0, 1, cr0, cr5, cr0, {0}
 370:	030c3f00 	movweq	r3, #52992	; 0xcf00
 374:	3b0b3a0e 	blcc	2cebb4 <__bss_end+0x2c62d4>
 378:	1201110b 	andne	r1, r1, #-1073741822	; 0xc0000002
 37c:	96064001 	strls	r4, [r6], -r1
 380:	00000c42 	andeq	r0, r0, r2, asr #24
 384:	3f012e16 	svccc	0x00012e16
 388:	3a0e030c 	bcc	380fc0 <__bss_end+0x3786e0>
 38c:	110b3b0b 	tstne	fp, fp, lsl #22
 390:	40011201 	andmi	r1, r1, r1, lsl #4
 394:	0c429606 	mcrreq	6, 0, r9, r2, cr6
 398:	00001301 	andeq	r1, r0, r1, lsl #6
 39c:	11010b17 	tstne	r1, r7, lsl fp
 3a0:	00011201 	andeq	r1, r1, r1, lsl #4
 3a4:	00341800 	eorseq	r1, r4, r0, lsl #16
 3a8:	0b3a0e03 	bleq	e83bbc <__bss_end+0xe7b2dc>
 3ac:	13490b3b 	movtne	r0, #39739	; 0x9b3b
 3b0:	00000a02 	andeq	r0, r0, r2, lsl #20
 3b4:	3f002e19 	svccc	0x00002e19
 3b8:	3a0e030c 	bcc	380ff0 <__bss_end+0x378710>
 3bc:	490b3b0b 	stmdbmi	fp, {r0, r1, r3, r8, r9, fp, ip, sp}
 3c0:	12011113 	andne	r1, r1, #-1073741820	; 0xc0000004
 3c4:	96064001 	strls	r4, [r6], -r1
 3c8:	00000c42 	andeq	r0, r0, r2, asr #24
 3cc:	3f002e1a 	svccc	0x00002e1a
 3d0:	3a0e030c 	bcc	381008 <__bss_end+0x378728>
 3d4:	490b3b0b 	stmdbmi	fp, {r0, r1, r3, r8, r9, fp, ip, sp}
 3d8:	12011113 	andne	r1, r1, #-1073741820	; 0xc0000004
 3dc:	970a4001 	strls	r4, [sl, -r1]
 3e0:	00000c42 	andeq	r0, r0, r2, asr #24
 3e4:	3f002e1b 	svccc	0x00002e1b
 3e8:	3a0e030c 	bcc	381020 <__bss_end+0x378740>
 3ec:	110b3b0b 	tstne	fp, fp, lsl #22
 3f0:	40011201 	andmi	r1, r1, r1, lsl #4
 3f4:	0c42960a 	mcrreq	6, 0, r9, r2, cr10
 3f8:	341c0000 	ldrcc	r0, [ip], #-0
 3fc:	3a0e0300 	bcc	381004 <__bss_end+0x378724>
 400:	490b3b0b 	stmdbmi	fp, {r0, r1, r3, r8, r9, fp, ip, sp}
 404:	020c3f13 	andeq	r3, ip, #76	; 0x4c
 408:	0000000a 	andeq	r0, r0, sl

Disassembly of section .debug_aranges:

00000000 <.debug_aranges>:
   0:	0000001c 	andeq	r0, r0, ip, lsl r0
   4:	00000002 	andeq	r0, r0, r2
   8:	00040000 	andeq	r0, r4, r0
   c:	00000000 	andeq	r0, r0, r0
  10:	00008000 	andeq	r8, r0, r0
  14:	000000d0 	ldrdeq	r0, [r0], -r0	; <UNPREDICTABLE>
	...
  20:	0000001c 	andeq	r0, r0, ip, lsl r0
  24:	00600002 	rsbeq	r0, r0, r2
  28:	00040000 	andeq	r0, r4, r0
  2c:	00000000 	andeq	r0, r0, r0
  30:	000080d0 	ldrdeq	r8, [r0], -r0
  34:	00000074 	andeq	r0, r0, r4, ror r0
	...
  40:	0000001c 	andeq	r0, r0, ip, lsl r0
  44:	02a70002 	adceq	r0, r7, #2
  48:	00040000 	andeq	r0, r4, r0
  4c:	00000000 	andeq	r0, r0, r0
  50:	00008144 	andeq	r8, r0, r4, asr #2
  54:	00000138 	andeq	r0, r0, r8, lsr r1
	...
  60:	0000001c 	andeq	r0, r0, ip, lsl r0
  64:	04090002 	streq	r0, [r9], #-2
  68:	00040000 	andeq	r0, r4, r0
  6c:	00000000 	andeq	r0, r0, r0
  70:	0000827c 	andeq	r8, r0, ip, ror r2
  74:	0000013c 	andeq	r0, r0, ip, lsr r1
	...
  80:	0000001c 	andeq	r0, r0, ip, lsl r0
  84:	04c50002 	strbeq	r0, [r5], #2
  88:	00040000 	andeq	r0, r4, r0
  8c:	00000000 	andeq	r0, r0, r0
  90:	000083b8 			; <UNDEFINED> instruction: 0x000083b8
  94:	00000510 	andeq	r0, r0, r0, lsl r5
	...

Disassembly of section .debug_loc:

00000000 <.debug_loc>:
   0:	00000000 	andeq	r0, r0, r0
   4:	00000004 	andeq	r0, r0, r4
   8:	007d0002 	rsbseq	r0, sp, r2
   c:	00000004 	andeq	r0, r0, r4
  10:	0000001c 	andeq	r0, r0, ip, lsl r0
  14:	087d0002 	ldmdaeq	sp!, {r1}^
	...
  20:	0000001c 	andeq	r0, r0, ip, lsl r0
  24:	00000020 	andeq	r0, r0, r0, lsr #32
  28:	007d0002 	rsbseq	r0, sp, r2
  2c:	00000020 	andeq	r0, r0, r0, lsr #32
  30:	00000038 	andeq	r0, r0, r8, lsr r0
  34:	087d0002 	ldmdaeq	sp!, {r1}^
	...
  40:	00000038 	andeq	r0, r0, r8, lsr r0
  44:	0000003c 	andeq	r0, r0, ip, lsr r0
  48:	007d0002 	rsbseq	r0, sp, r2
  4c:	0000003c 	andeq	r0, r0, ip, lsr r0
  50:	00000074 	andeq	r0, r0, r4, ror r0
  54:	087d0002 	ldmdaeq	sp!, {r1}^
	...
  64:	00000004 	andeq	r0, r0, r4
  68:	007d0002 	rsbseq	r0, sp, r2
  6c:	00000004 	andeq	r0, r0, r4
  70:	00000008 	andeq	r0, r0, r8
  74:	087d0002 	ldmdaeq	sp!, {r1}^
  78:	00000008 	andeq	r0, r0, r8
  7c:	000000b4 	strheq	r0, [r0], -r4
  80:	107d0002 	rsbsne	r0, sp, r2
	...
  8c:	000000b4 	strheq	r0, [r0], -r4
  90:	000000b8 	strheq	r0, [r0], -r8
  94:	007d0002 	rsbseq	r0, sp, r2
  98:	000000b8 	strheq	r0, [r0], -r8
  9c:	000000bc 	strheq	r0, [r0], -ip
  a0:	047d0002 	ldrbteq	r0, [sp], #-2
  a4:	000000bc 	strheq	r0, [r0], -ip
  a8:	000000fc 	strdeq	r0, [r0], -ip
  ac:	107d0002 	rsbsne	r0, sp, r2
	...
  b8:	000000fc 	strdeq	r0, [r0], -ip
  bc:	00000100 	andeq	r0, r0, r0, lsl #2
  c0:	007d0002 	rsbseq	r0, sp, r2
  c4:	00000100 	andeq	r0, r0, r0, lsl #2
  c8:	00000138 	andeq	r0, r0, r8, lsr r1
  cc:	087d0002 	ldmdaeq	sp!, {r1}^
	...
  dc:	00000004 	andeq	r0, r0, r4
  e0:	007d0002 	rsbseq	r0, sp, r2
  e4:	00000004 	andeq	r0, r0, r4
  e8:	00000008 	andeq	r0, r0, r8
  ec:	047d0002 	ldrbteq	r0, [sp], #-2
  f0:	00000008 	andeq	r0, r0, r8
  f4:	0000004c 	andeq	r0, r0, ip, asr #32
  f8:	107d0002 	rsbsne	r0, sp, r2
	...
 104:	0000004c 	andeq	r0, r0, ip, asr #32
 108:	00000050 	andeq	r0, r0, r0, asr r0
 10c:	007d0002 	rsbseq	r0, sp, r2
 110:	00000050 	andeq	r0, r0, r0, asr r0
 114:	00000064 	andeq	r0, r0, r4, rrx
 118:	087d0002 	ldmdaeq	sp!, {r1}^
	...
 124:	00000064 	andeq	r0, r0, r4, rrx
 128:	00000068 	andeq	r0, r0, r8, rrx
 12c:	007d0002 	rsbseq	r0, sp, r2
 130:	00000068 	andeq	r0, r0, r8, rrx
 134:	0000007c 	andeq	r0, r0, ip, ror r0
 138:	087d0002 	ldmdaeq	sp!, {r1}^
	...
 144:	0000007c 	andeq	r0, r0, ip, ror r0
 148:	00000080 	andeq	r0, r0, r0, lsl #1
 14c:	007d0002 	rsbseq	r0, sp, r2
 150:	00000080 	andeq	r0, r0, r0, lsl #1
 154:	00000084 	andeq	r0, r0, r4, lsl #1
 158:	047d0002 	ldrbteq	r0, [sp], #-2
 15c:	00000084 	andeq	r0, r0, r4, lsl #1
 160:	0000013c 	andeq	r0, r0, ip, lsr r1
 164:	107d0002 	rsbsne	r0, sp, r2
	...
 174:	00000004 	andeq	r0, r0, r4
 178:	007d0002 	rsbseq	r0, sp, r2
 17c:	00000004 	andeq	r0, r0, r4
 180:	00000008 	andeq	r0, r0, r8
 184:	047d0002 	ldrbteq	r0, [sp], #-2
 188:	00000008 	andeq	r0, r0, r8
 18c:	0000004c 	andeq	r0, r0, ip, asr #32
 190:	107d0002 	rsbsne	r0, sp, r2
	...
 19c:	00000078 	andeq	r0, r0, r8, ror r0
 1a0:	0000007c 	andeq	r0, r0, ip, ror r0
 1a4:	007d0002 	rsbseq	r0, sp, r2
 1a8:	0000007c 	andeq	r0, r0, ip, ror r0
 1ac:	00000080 	andeq	r0, r0, r0, lsl #1
 1b0:	047d0002 	ldrbteq	r0, [sp], #-2
 1b4:	00000080 	andeq	r0, r0, r0, lsl #1
 1b8:	000000ec 	andeq	r0, r0, ip, ror #1
 1bc:	207d0002 	rsbscs	r0, sp, r2
	...
 1c8:	000000ec 	andeq	r0, r0, ip, ror #1
 1cc:	000000f0 	strdeq	r0, [r0], -r0	; <UNPREDICTABLE>
 1d0:	007d0002 	rsbseq	r0, sp, r2
 1d4:	000000f0 	strdeq	r0, [r0], -r0	; <UNPREDICTABLE>
 1d8:	000000f4 	strdeq	r0, [r0], -r4
 1dc:	047d0002 	ldrbteq	r0, [sp], #-2
 1e0:	000000f4 	strdeq	r0, [r0], -r4
 1e4:	00000218 	andeq	r0, r0, r8, lsl r2
 1e8:	207d0002 	rsbscs	r0, sp, r2
	...
 1f4:	00000218 	andeq	r0, r0, r8, lsl r2
 1f8:	0000021c 	andeq	r0, r0, ip, lsl r2
 1fc:	007d0002 	rsbseq	r0, sp, r2
 200:	0000021c 	andeq	r0, r0, ip, lsl r2
 204:	00000268 	andeq	r0, r0, r8, ror #4
 208:	087d0002 	ldmdaeq	sp!, {r1}^
	...
 214:	00000268 	andeq	r0, r0, r8, ror #4
 218:	0000026c 	andeq	r0, r0, ip, ror #4
 21c:	007d0002 	rsbseq	r0, sp, r2
 220:	0000026c 	andeq	r0, r0, ip, ror #4
 224:	00000270 	andeq	r0, r0, r0, ror r2
 228:	047d0002 	ldrbteq	r0, [sp], #-2
 22c:	00000270 	andeq	r0, r0, r0, ror r2
 230:	00000350 	andeq	r0, r0, r0, asr r3
 234:	107d0002 	rsbsne	r0, sp, r2
	...
 240:	00000350 	andeq	r0, r0, r0, asr r3
 244:	00000354 	andeq	r0, r0, r4, asr r3
 248:	007d0002 	rsbseq	r0, sp, r2
 24c:	00000354 	andeq	r0, r0, r4, asr r3
 250:	00000370 	andeq	r0, r0, r0, ror r3
 254:	087d0002 	ldmdaeq	sp!, {r1}^
	...
 260:	00000394 	muleq	r0, r4, r3
 264:	00000398 	muleq	r0, r8, r3
 268:	007d0002 	rsbseq	r0, sp, r2
 26c:	00000398 	muleq	r0, r8, r3
 270:	000003d0 	ldrdeq	r0, [r0], -r0	; <UNPREDICTABLE>
 274:	087d0002 	ldmdaeq	sp!, {r1}^
	...

Disassembly of section .debug_str:

00000000 <.debug_str>:
   0:	69616d6b 	stmdbvs	r1!, {r0, r1, r3, r5, r6, r8, sl, fp, sp, lr}^
   4:	616c006e 	cmnvs	ip, lr, rrx
   8:	63007473 	movwvs	r7, #1139	; 0x473
   c:	00417470 	subeq	r7, r1, r0, ror r4
  10:	20554e47 	subscs	r4, r5, r7, asr #28
  14:	2e342043 	cdpcs	0, 3, cr2, cr4, cr3, {2}
  18:	00312e37 	eorseq	r2, r1, r7, lsr lr
  1c:	75657571 	strbvc	r7, [r5, #-1393]!	; 0x571
  20:	70630065 	rsbvc	r0, r3, r5, rrx
  24:	70004274 	andvc	r4, r0, r4, ror r2
  28:	69766572 	ldmdbvs	r6!, {r1, r4, r5, r6, r8, sl, sp, lr}^
  2c:	0073756f 	rsbseq	r7, r3, pc, ror #10
  30:	44414552 	strbmi	r4, [r1], #-1362	; 0x552
  34:	75660059 	strbvc	r0, [r6, #-89]!	; 0x59
  38:	0041636e 	subeq	r6, r1, lr, ror #6
  3c:	4d524554 	cfldr64mi	mvdx4, [r2, #-336]	; 0xfffffeb0
  40:	54414e49 	strbpl	r4, [r1], #-3657	; 0xe49
  44:	66004445 	strvs	r4, [r0], -r5, asr #8
  48:	42636e75 	rsbmi	r6, r3, #1872	; 0x750
  4c:	61747300 	cmnvs	r4, r0, lsl #6
  50:	735f6b63 	cmpvc	pc, #101376	; 0x18c00
  54:	00657a69 	rsbeq	r7, r5, r9, ror #20
  58:	5f787463 	svcpl	0x00787463
  5c:	682f0073 	stmdavs	pc!, {r0, r1, r4, r5, r6}	; <UNPREDICTABLE>
  60:	2f656d6f 	svccs	0x00656d6f
  64:	72617361 	rsbvc	r7, r1, #-2080374783	; 0x84000001
  68:	6e697a61 	vnmulvs.f32	s15, s18, s3
  6c:	6f442f31 	svcvs	0x00442f31
  70:	656d7563 	strbvs	r7, [sp, #-1379]!	; 0x563
  74:	2f73746e 	svccs	0x0073746e
  78:	70736152 	rsbsvc	r6, r3, r2, asr r1
  7c:	72726562 	rsbsvc	r6, r2, #411041792	; 0x18800000
  80:	736f2f79 	cmnvc	pc, #484	; 0x1e4
  84:	2d656970 	stclcs	9, cr6, [r5, #-448]!	; 0xfffffe40
  88:	72617473 	rsbvc	r7, r1, #1929379840	; 0x73000000
  8c:	55520074 	ldrbpl	r0, [r2, #-116]	; 0x74
  90:	4e494e4e 	cdpmi	14, 4, cr4, cr9, cr14, {2}
  94:	63730047 	cmnvs	r3, #71	; 0x47
  98:	5f646568 	svcpl	0x00646568
  9c:	636e7566 	cmnvs	lr, #427819008	; 0x19800000
  a0:	68637300 	stmdavs	r3!, {r8, r9, ip, sp, lr}^
  a4:	6c756465 	cfldrdvs	mvd6, [r5], #-404	; 0xfffffe6c
  a8:	665f7265 	ldrbvs	r7, [pc], -r5, ror #4
  ac:	74636e75 	strbtvc	r6, [r3], #-3701	; 0xe75
  b0:	006e6f69 	rsbeq	r6, lr, r9, ror #30
  b4:	75657571 	strbvc	r7, [r5, #-1393]!	; 0x571
  b8:	6f725f65 	svcvs	0x00725f65
  bc:	5f646e75 	svcpl	0x00646e75
  c0:	69626f72 	stmdbvs	r2!, {r1, r4, r5, r6, r8, r9, sl, fp, sp, lr}^
  c4:	6966006e 	stmdbvs	r6!, {r1, r2, r3, r5, r6}^
  c8:	00747372 	rsbseq	r7, r4, r2, ror r3
  cc:	6e72656b 	cdpvs	5, 7, cr6, cr2, cr11, {3}
  d0:	632e6c65 	teqvs	lr, #25856	; 0x6500
  d4:	61747300 	cmnvs	r4, r0, lsl #6
  d8:	70006574 	andvc	r6, r0, r4, ror r5
  dc:	735f6263 	cmpvc	pc, #805306374	; 0x30000006
  e0:	49415700 	stmdbmi	r1, {r8, r9, sl, ip, lr}^
  e4:	474e4954 	smlsldmi	r4, lr, r4, r9
  e8:	696e6900 	stmdbvs	lr!, {r8, fp, sp, lr}^
  ec:	77685f74 			; <UNDEFINED> instruction: 0x77685f74
  f0:	6e756600 	cdpvs	6, 7, cr6, cr5, cr0, {0}
  f4:	00745f63 	rsbseq	r5, r4, r3, ror #30
  f8:	636e7566 	cmnvs	lr, #427819008	; 0x19800000
  fc:	6e6f6974 	mcrvs	9, 3, r6, cr15, cr4, {3}
 100:	73677241 	cmnvc	r7, #268435460	; 0x10000004
 104:	61745300 	cmnvs	r4, r0, lsl #6
 108:	6e006574 	cfrshl64vs	mvdx0, mvdx4, r6
 10c:	00747865 	rsbseq	r7, r4, r5, ror #16
 110:	41796870 	cmnmi	r9, r0, ror r8
 114:	636f6c6c 	cmnvs	pc, #27648	; 0x6c00
 118:	7000632e 	andvc	r6, r0, lr, lsr #6
 11c:	00766572 	rsbseq	r6, r6, r2, ror r5
 120:	65657266 	strbvs	r7, [r5, #-614]!	; 0x266
 124:	7473696c 	ldrbtvc	r6, [r3], #-2412	; 0x96c
 128:	79687000 	stmdbvc	r8!, {ip, sp, lr}^
 12c:	6f6c6c41 	svcvs	0x006c6c41
 130:	72665f63 	rsbvc	r5, r6, #396	; 0x18c
 134:	68006565 	stmdavs	r0, {r0, r2, r5, r6, r8, sl, sp, lr}
 138:	5f706165 	svcpl	0x00706165
 13c:	72617473 	rsbvc	r7, r1, #1929379840	; 0x73000000
 140:	68700074 	ldmdavs	r0!, {r2, r4, r5, r6}^
 144:	6c6c4179 	stfvse	f4, [ip], #-484	; 0xfffffe1c
 148:	615f636f 	cmpvs	pc, pc, ror #6
 14c:	636f6c6c 	cmnvs	pc, #27648	; 0x6c00
 150:	79687000 	stmdbvc	r8!, {ip, sp, lr}^
 154:	6f6c6c41 	svcvs	0x006c6c41
 158:	6e695f63 	cdpvs	15, 6, cr5, cr9, cr3, {3}
 15c:	68007469 	stmdavs	r0, {r0, r3, r5, r6, sl, ip, sp, lr}
 160:	5f706165 	svcpl	0x00706165
 164:	696d696c 	stmdbvs	sp!, {r2, r3, r5, r6, r8, fp, sp, lr}^
 168:	65680074 	strbvs	r0, [r8, #-116]!	; 0x74
 16c:	735f7061 	cmpvc	pc, #97	; 0x61
 170:	00657a69 	rsbeq	r7, r5, r9, ror #20
 174:	69736e75 	ldmdbvs	r3!, {r0, r2, r4, r5, r6, r9, sl, fp, sp, lr}^
 178:	64656e67 	strbtvs	r6, [r5], #-3687	; 0xe67
 17c:	61686320 	cmnvs	r8, r0, lsr #6
 180:	77680072 			; <UNDEFINED> instruction: 0x77680072
 184:	6c00632e 	stcvs	3, cr6, [r0], {46}	; 0x2e
 188:	6f5f6465 	svcvs	0x005f6465
 18c:	6573006e 	ldrbvs	r0, [r3, #-110]!	; 0x6e
 190:	69745f74 	ldmdbvs	r4!, {r2, r4, r5, r6, r8, r9, sl, fp, ip, lr}^
 194:	615f6b63 	cmpvs	pc, r3, ror #22
 198:	655f646e 	ldrbvs	r6, [pc, #-1134]	; fffffd32 <__bss_end+0xffff7452>
 19c:	6c62616e 	stfvse	f6, [r2], #-440	; 0xfffffe48
 1a0:	69745f65 	ldmdbvs	r4!, {r0, r2, r5, r6, r8, r9, sl, fp, ip, lr}^
 1a4:	0072656d 	rsbseq	r6, r2, sp, ror #10
 1a8:	726f6873 	rsbvc	r6, pc, #7536640	; 0x730000
 1ac:	6e752074 	mrcvs	0, 3, r2, cr5, cr4, {3}
 1b0:	6e676973 	mcrvs	9, 3, r6, cr7, cr3, {3}
 1b4:	69206465 	stmdbvs	r0!, {r0, r2, r5, r6, sl, sp, lr}
 1b8:	6c00746e 	cfstrsvs	mvf7, [r0], {110}	; 0x6e
 1bc:	6f5f6465 	svcvs	0x005f6465
 1c0:	73006666 	movwvc	r6, #1638	; 0x666
 1c4:	74726174 	ldrbtvc	r6, [r2], #-372	; 0x174
 1c8:	7275635f 	rsbsvc	r6, r5, #2080374785	; 0x7c000001
 1cc:	746e6572 	strbtvc	r6, [lr], #-1394	; 0x572
 1d0:	6f72705f 	svcvs	0x0072705f
 1d4:	73736563 	cmnvc	r3, #415236096	; 0x18c00000
 1d8:	68637300 	stmdavs	r3!, {r8, r9, ip, sp, lr}^
 1dc:	632e6465 	teqvs	lr, #1694498816	; 0x65000000
 1e0:	78746300 	ldmdavc	r4!, {r8, r9, sp, lr}^
 1e4:	6977735f 	ldmdbvs	r7!, {r0, r1, r2, r3, r4, r6, r8, r9, ip, sp, lr}^
 1e8:	00686374 	rsbeq	r6, r8, r4, ror r3
 1ec:	5f706d74 	svcpl	0x00706d74
 1f0:	636f7270 	cmnvs	pc, #7
 1f4:	00737365 	rsbseq	r7, r3, r5, ror #6
 1f8:	63656c65 	cmnvs	r5, #25856	; 0x6500
 1fc:	6e690074 	mcrvs	0, 3, r0, cr9, cr4, {3}
 200:	635f7469 	cmpvs	pc, #1761607680	; 0x69000000
 204:	63007874 	movwvs	r7, #2164	; 0x874
 208:	735f7874 	cmpvc	pc, #7602176	; 0x740000
 20c:	63746977 	cmnvs	r4, #1949696	; 0x1dc000
 210:	72665f68 	rsbvc	r5, r6, #416	; 0x1a0
 214:	695f6d6f 	ldmdbvs	pc, {r0, r1, r2, r3, r5, r6, r8, sl, fp, sp, lr}^	; <UNPREDICTABLE>
 218:	73007172 	movwvc	r7, #370	; 0x172
 21c:	74726174 	ldrbtvc	r6, [r2], #-372	; 0x174
 220:	6863735f 	stmdavs	r3!, {r0, r1, r2, r3, r4, r6, r8, r9, ip, sp, lr}^
 224:	73006465 	movwvc	r6, #1125	; 0x465
 228:	64656863 	strbtvs	r6, [r5], #-2147	; 0x863
 22c:	72656c75 	rsbvc	r6, r5, #29952	; 0x7500
 230:	61747300 	cmnvs	r4, r0, lsl #6
 234:	69536b63 	ldmdbvs	r3, {r0, r1, r5, r6, r8, r9, fp, sp, lr}^
 238:	6900657a 	stmdbvs	r0, {r1, r3, r4, r5, r6, r8, sl, sp, lr}
 23c:	5f74696e 	svcpl	0x0074696e
 240:	65686373 	strbvs	r6, [r8, #-883]!	; 0x373
 244:	63730064 	cmnvs	r3, #100	; 0x64
 248:	5f646568 	svcpl	0x00646568
 24c:	6e756f72 	mrcvs	15, 3, r6, cr5, cr2, {3}
 250:	6f725f64 	svcvs	0x00725f64
 254:	006e6962 	rsbeq	r6, lr, r2, ror #18
 258:	42435061 	submi	r5, r3, #97	; 0x61
 25c:	67726100 	ldrbvs	r6, [r2, -r0, lsl #2]!
 260:	6e690073 	mcrvs	0, 3, r0, cr9, cr3, {3}
 264:	705f7469 	subsvc	r7, pc, r9, ror #8
 268:	63006263 	movwvs	r6, #611	; 0x263
 26c:	74616572 	strbtvc	r6, [r1], #-1394	; 0x572
 270:	72705f65 	rsbsvc	r5, r0, #404	; 0x194
 274:	7365636f 	cmnvc	r5, #-1140850687	; 0xbc000001
 278:	63730073 	cmnvs	r3, #115	; 0x73
 27c:	5f646568 	svcpl	0x00646568
 280:	65786966 	ldrbvs	r6, [r8, #-2406]!	; 0x966
 284:	72705f64 	rsbsvc	r5, r0, #400	; 0x190
 288:	69726f69 	ldmdbvs	r2!, {r0, r3, r5, r6, r8, r9, sl, fp, sp, lr}^
 28c:	Address 0x000000000000028c is out of bounds.


Disassembly of section .debug_frame:

00000000 <.debug_frame>:
   0:	0000000c 	andeq	r0, r0, ip
   4:	ffffffff 			; <UNDEFINED> instruction: 0xffffffff
   8:	7c020001 	stcvc	0, cr0, [r2], {1}
   c:	000d0c0e 	andeq	r0, sp, lr, lsl #24
  10:	00000010 	andeq	r0, r0, r0, lsl r0
  14:	00000000 	andeq	r0, r0, r0
  18:	000080d0 	ldrdeq	r8, [r0], -r0
  1c:	0000001c 	andeq	r0, r0, ip, lsl r0
  20:	00080e42 	andeq	r0, r8, r2, asr #28
  24:	00000010 	andeq	r0, r0, r0, lsl r0
  28:	00000000 	andeq	r0, r0, r0
  2c:	000080ec 	andeq	r8, r0, ip, ror #1
  30:	0000001c 	andeq	r0, r0, ip, lsl r0
  34:	00080e42 	andeq	r0, r8, r2, asr #28
  38:	00000014 	andeq	r0, r0, r4, lsl r0
  3c:	00000000 	andeq	r0, r0, r0
  40:	00008108 	andeq	r8, r0, r8, lsl #2
  44:	0000003c 	andeq	r0, r0, ip, lsr r0
  48:	83080e42 	movwhi	r0, #36418	; 0x8e42
  4c:	00018e02 	andeq	r8, r1, r2, lsl #28
  50:	0000000c 	andeq	r0, r0, ip
  54:	ffffffff 			; <UNDEFINED> instruction: 0xffffffff
  58:	7c020001 	stcvc	0, cr0, [r2], {1}
  5c:	000d0c0e 	andeq	r0, sp, lr, lsl #24
  60:	00000018 	andeq	r0, r0, r8, lsl r0
  64:	00000050 	andeq	r0, r0, r0, asr r0
  68:	00008144 	andeq	r8, r0, r4, asr #2
  6c:	000000b4 	strheq	r0, [r0], -r4
  70:	84080e42 	strhi	r0, [r8], #-3650	; 0xe42
  74:	42018502 	andmi	r8, r1, #8388608	; 0x800000
  78:	0000100e 	andeq	r1, r0, lr
  7c:	00000014 	andeq	r0, r0, r4, lsl r0
  80:	00000050 	andeq	r0, r0, r0, asr r0
  84:	000081f8 	strdeq	r8, [r0], -r8	; <UNPREDICTABLE>
  88:	00000048 	andeq	r0, r0, r8, asr #32
  8c:	84040e42 	strhi	r0, [r4], #-3650	; 0xe42
  90:	100e4201 	andne	r4, lr, r1, lsl #4
  94:	00000010 	andeq	r0, r0, r0, lsl r0
  98:	00000050 	andeq	r0, r0, r0, asr r0
  9c:	00008240 	andeq	r8, r0, r0, asr #4
  a0:	0000003c 	andeq	r0, r0, ip, lsr r0
  a4:	00080e42 	andeq	r0, r8, r2, asr #28
  a8:	0000000c 	andeq	r0, r0, ip
  ac:	ffffffff 			; <UNDEFINED> instruction: 0xffffffff
  b0:	7c020001 	stcvc	0, cr0, [r2], {1}
  b4:	000d0c0e 	andeq	r0, sp, lr, lsl #24
  b8:	00000014 	andeq	r0, r0, r4, lsl r0
  bc:	000000a8 	andeq	r0, r0, r8, lsr #1
  c0:	0000827c 	andeq	r8, r0, ip, ror r2
  c4:	0000004c 	andeq	r0, r0, ip, asr #32
  c8:	8e040e42 	cdphi	14, 0, cr0, cr4, cr2, {2}
  cc:	100e4201 	andne	r4, lr, r1, lsl #4
  d0:	00000014 	andeq	r0, r0, r4, lsl r0
  d4:	000000a8 	andeq	r0, r0, r8, lsr #1
  d8:	000082c8 	andeq	r8, r0, r8, asr #5
  dc:	00000018 	andeq	r0, r0, r8, lsl r0
  e0:	83080e42 	movwhi	r0, #36418	; 0x8e42
  e4:	00018e02 	andeq	r8, r1, r2, lsl #28
  e8:	00000014 	andeq	r0, r0, r4, lsl r0
  ec:	000000a8 	andeq	r0, r0, r8, lsr #1
  f0:	000082e0 	andeq	r8, r0, r0, ror #5
  f4:	00000018 	andeq	r0, r0, r8, lsl r0
  f8:	83080e42 	movwhi	r0, #36418	; 0x8e42
  fc:	00018e02 	andeq	r8, r1, r2, lsl #28
 100:	00000014 	andeq	r0, r0, r4, lsl r0
 104:	000000a8 	andeq	r0, r0, r8, lsr #1
 108:	000082f8 	strdeq	r8, [r0], -r8	; <UNPREDICTABLE>
 10c:	000000c0 	andeq	r0, r0, r0, asr #1
 110:	8e040e42 	cdphi	14, 0, cr0, cr4, cr2, {2}
 114:	100e4201 	andne	r4, lr, r1, lsl #4
 118:	0000000c 	andeq	r0, r0, ip
 11c:	ffffffff 			; <UNDEFINED> instruction: 0xffffffff
 120:	7c020001 	stcvc	0, cr0, [r2], {1}
 124:	000d0c0e 	andeq	r0, sp, lr, lsl #24
 128:	00000014 	andeq	r0, r0, r4, lsl r0
 12c:	00000118 	andeq	r0, r0, r8, lsl r1
 130:	000083b8 			; <UNDEFINED> instruction: 0x000083b8
 134:	0000004c 	andeq	r0, r0, ip, asr #32
 138:	8e040e42 	cdphi	14, 0, cr0, cr4, cr2, {2}
 13c:	100e4201 	andne	r4, lr, r1, lsl #4
 140:	0000000c 	andeq	r0, r0, ip
 144:	00000118 	andeq	r0, r0, r8, lsl r1
 148:	00008404 	andeq	r8, r0, r4, lsl #8
 14c:	0000002c 	andeq	r0, r0, ip, lsr #32
 150:	00000014 	andeq	r0, r0, r4, lsl r0
 154:	00000118 	andeq	r0, r0, r8, lsl r1
 158:	00008430 	andeq	r8, r0, r0, lsr r4
 15c:	00000074 	andeq	r0, r0, r4, ror r0
 160:	8e040e42 	cdphi	14, 0, cr0, cr4, cr2, {2}
 164:	200e4201 	andcs	r4, lr, r1, lsl #4
 168:	00000014 	andeq	r0, r0, r4, lsl r0
 16c:	00000118 	andeq	r0, r0, r8, lsl r1
 170:	000084a4 	andeq	r8, r0, r4, lsr #9
 174:	0000012c 	andeq	r0, r0, ip, lsr #2
 178:	8e040e42 	cdphi	14, 0, cr0, cr4, cr2, {2}
 17c:	200e4201 	andcs	r4, lr, r1, lsl #4
 180:	00000014 	andeq	r0, r0, r4, lsl r0
 184:	00000118 	andeq	r0, r0, r8, lsl r1
 188:	000085d0 	ldrdeq	r8, [r0], -r0
 18c:	00000050 	andeq	r0, r0, r0, asr r0
 190:	83080e42 	movwhi	r0, #36418	; 0x8e42
 194:	00018e02 	andeq	r8, r1, r2, lsl #28
 198:	00000014 	andeq	r0, r0, r4, lsl r0
 19c:	00000118 	andeq	r0, r0, r8, lsl r1
 1a0:	00008620 	andeq	r8, r0, r0, lsr #12
 1a4:	000000e8 	andeq	r0, r0, r8, ror #1
 1a8:	8e040e42 	cdphi	14, 0, cr0, cr4, cr2, {2}
 1ac:	100e4201 	andne	r4, lr, r1, lsl #4
 1b0:	00000014 	andeq	r0, r0, r4, lsl r0
 1b4:	00000118 	andeq	r0, r0, r8, lsl r1
 1b8:	00008708 	andeq	r8, r0, r8, lsl #14
 1bc:	00000020 	andeq	r0, r0, r0, lsr #32
 1c0:	83080e42 	movwhi	r0, #36418	; 0x8e42
 1c4:	00018e02 	andeq	r8, r1, r2, lsl #28
 1c8:	0000000c 	andeq	r0, r0, ip
 1cc:	00000118 	andeq	r0, r0, r8, lsl r1
 1d0:	00008728 	andeq	r8, r0, r8, lsr #14
 1d4:	00000018 	andeq	r0, r0, r8, lsl r0
 1d8:	0000000c 	andeq	r0, r0, ip
 1dc:	00000118 	andeq	r0, r0, r8, lsl r1
 1e0:	00008740 	andeq	r8, r0, r0, asr #14
 1e4:	0000000c 	andeq	r0, r0, ip
 1e8:	00000014 	andeq	r0, r0, r4, lsl r0
 1ec:	00000118 	andeq	r0, r0, r8, lsl r1
 1f0:	0000874c 	andeq	r8, r0, ip, asr #14
 1f4:	0000003c 	andeq	r0, r0, ip, lsr r0
 1f8:	83080e42 	movwhi	r0, #36418	; 0x8e42
 1fc:	00018e02 	andeq	r8, r1, r2, lsl #28
 200:	0000000c 	andeq	r0, r0, ip
 204:	00000118 	andeq	r0, r0, r8, lsl r1
 208:	00008788 	andeq	r8, r0, r8, lsl #15
 20c:	000000c8 	andeq	r0, r0, r8, asr #1
 210:	0000000c 	andeq	r0, r0, ip
 214:	00000118 	andeq	r0, r0, r8, lsl r1
 218:	00008850 	andeq	r8, r0, r0, asr r8
 21c:	00000078 	andeq	r0, r0, r8, ror r0
